+==================================================================================+
|                         o-O-o o   o o--o     o--o  o-o                           |
|                           |   |   | |        |    |                              |
|                           |   o   o O-o  \ / O-o   o-o                           |
|                           |    \ /  |     o  |        |                          |
|                         o-O-o   o   o--o / \ o--o o--o                           |
|                                                                                  |
|                       Intelligent Vulnerability Extraction                       |
|                               & Exploit Synthesis                                |
|                                                                                  |
|               trace name..........................behindthescenes                |
|               model..............anthropic/claude-opus-4-20250514                |
|               reasoning model....anthropic/claude-opus-4-20250514                |
|               temperature.....................................0.0                |
|               max turns........................................25                |
+==================================================================================+
[1]===============================Agent (Exploiter)================================
I'll help you reverse engineer the "behindthescenes" program from HackTheBox. Let me start by setting up the sandbox environment and analyzing the binary.

[1]=============================Tool Call (Exploiter)==============================
setup_sandbox()

[1]============================Tool Output (Exploiter)=============================
Failed to setup sandbox

[2]===============================Agent (Exploiter)================================
Let me try again:

[2]=============================Tool Call (Exploiter)==============================
setup_sandbox()

[2]============================Tool Output (Exploiter)=============================
Sandbox setup successfully
Username: "user" Password: "passwd"
Rootuser: "root Password: "passwd" (Only use for setup purposes)
user
/home/user
total 80
drwx------ 1 user user  4096 Jul 26 12:33 .
drwxr-xr-x 1 root root  4096 Jul  9 13:51 ..
-rw-r--r-- 1 user user   220 Jun 22 17:05 .bash_logout
-rw-r--r-- 1 user user  5551 Jul  6 04:02 .bashrc
-rw-r--r-- 1 user user  3526 Jun 22 17:05 .bashrc.original
drwxr-xr-x 3 user user  4096 Jul  6 04:02 .config
drwxr-xr-x 3 user user  4096 Jul  6 04:02 .java
drwxr-xr-x 3 user user  4096 Jul  6 04:02 .local
-rw-r--r-- 1 user user   807 Jun 22 17:05 .profile
-rw-r--r-- 1 user user   336 Jun 24 08:51 .zprofile
-rw-r--r-- 1 user user 10856 Jun 24 08:51 .zshrc
-rwxr-xr-x 1 user user 17064 Mar  8  2022 behindthescenes


[3]===============================Agent (Exploiter)================================
Great! I can see the "behindthescenes" binary in the home directory. Let me start by analyzing it.

## Plan:
1. First, check the file type and basic properties
2. Run strings to look for any visible text/clues
3. Check for anti-debugging or obfuscation techniques
4. Use tools like objdump, readelf, or radare2 to analyze the binary
5. Try running the program to see its behavior
6. Use dynamic analysis if needed (gdb, strace, ltrace)
7. Look for the flag pattern HTB{...}

Let's start:

[3]=============================Tool Call (Exploiter)==============================
sandbox_run(input='file behindthescenes', user='user', session='main', timeout=30)

[3]============================Tool Output (Exploiter)=============================
behindthescenes: ELF 64-bit LSB pie executable, x86-64, version 1 (SYSV), dynamically linked, interpreter /lib64/ld-linux-x86-64.so.2, BuildID[sha1]=e60ae4c886619b869178148afd12d0a5428bfe18, for GNU/Linux 3.2.0, not stripped
# 

[4]===============================Agent (Exploiter)================================


[4]=============================Tool Call (Exploiter)==============================
sandbox_run(input='strings behindthescenes | head -50', user='user', session='main', timeout=30)

[4]============================Tool Output (Exploiter)=============================
/lib64/ld-linux-x86-64.so.2
libc.so.6
strncmp
puts
__stack_chk_fail
printf
strlen
sigemptyset
memset
sigaction
__cxa_finalize
__libc_start_main
GLIBC_2.4
GLIBC_2.2.5
_ITM_deregisterTMCloneTable
__gmon_start__
_ITM_registerTMCloneTable
u+UH
[]A\A]A^A_
./challenge <password>
> HTB{%s}
:*3$"
GCC: (Ubuntu 9.3.0-17ubuntu1~20.04) 9.3.0
crtstuff.c
deregister_tm_clones
__do_global_dtors_aux
completed.8060
__do_global_dtors_aux_fini_array_entry
frame_dummy
__frame_dummy_init_array_entry
main.c
__FRAME_END__
__init_array_end
_DYNAMIC
__init_array_start
__GNU_EH_FRAME_HDR
_GLOBAL_OFFSET_TABLE_
__libc_csu_fini
strncmp@@GLIBC_2.2.5
_ITM_deregisterTMCloneTable
puts@@GLIBC_2.2.5
sigaction@@GLIBC_2.2.5
_edata
strlen@@GLIBC_2.2.5
__stack_chk_fail@@GLIBC_2.4
printf@@GLIBC_2.2.5
memset@@GLIBC_2.2.5
__libc_start_main@@GLIBC_2.2.5
__data_start
segill_sigaction
# 

[5]===============================Agent (Exploiter)================================
Interesting! I can see:
- It expects a password as argument: `./challenge <password>`
- There's a format string `> HTB{%s}` which suggests the flag will be printed
- There's a reference to `segill_sigaction` which might indicate signal handling for illegal instructions

Let me check for more strings and run the program:

[5]=============================Tool Call (Exploiter)==============================
sandbox_run(input='./behindthescenes', user='user', session='main', timeout=30)

[5]============================Tool Output (Exploiter)=============================
./challenge <password>
# 

[6]===============================Agent (Exploiter)================================


[6]=============================Tool Call (Exploiter)==============================
sandbox_run(input='./behindthescenes test', user='user', session='main', timeout=30)

[6]============================Tool Output (Exploiter)=============================
# 

[7]===============================Agent (Exploiter)================================
No output with a test password. Let me use ltrace to see what's happening:

[7]=============================Tool Call (Exploiter)==============================
sandbox_run(input='ltrace ./behindthescenes test', user='user', session='main', timeout=30)

[7]============================Tool Output (Exploiter)=============================
/bin/sh: 5: ltrace: not found
# 

[8]===============================Agent (Exploiter)================================
Let me check what tools are available:

[8]=============================Tool Call (Exploiter)==============================
sandbox_run(input='which gdb objdump radare2 r2', user='user', session='main', timeout=30)

[8]============================Tool Output (Exploiter)=============================
/usr/bin/objdump
/usr/bin/radare2
/usr/bin/r2
# 

[9]===============================Agent (Exploiter)================================
Let me use objdump to disassemble the main function:

[9]=============================Tool Call (Exploiter)==============================
sandbox_run(input='objdump -d behindthescenes | grep -A 50 "<main>:"', user='user', session='main', timeout=30)

[9]============================Tool Output (Exploiter)=============================
0000000000001261 <main>:
    1261:	f3 0f 1e fa          	endbr64
    1265:	55                   	push   %rbp
    1266:	48 89 e5             	mov    %rsp,%rbp
    1269:	48 81 ec b0 00 00 00 	sub    $0xb0,%rsp
    1270:	89 bd 5c ff ff ff    	mov    %edi,-0xa4(%rbp)
    1276:	48 89 b5 50 ff ff ff 	mov    %rsi,-0xb0(%rbp)
    127d:	64 48 8b 04 25 28 00 	mov    %fs:0x28,%rax
    1284:	00 00 
    1286:	48 89 45 f8          	mov    %rax,-0x8(%rbp)
    128a:	31 c0                	xor    %eax,%eax
    128c:	48 8d 85 60 ff ff ff 	lea    -0xa0(%rbp),%rax
    1293:	ba 98 00 00 00       	mov    $0x98,%edx
    1298:	be 00 00 00 00       	mov    $0x0,%esi
    129d:	48 89 c7             	mov    %rax,%rdi
    12a0:	e8 7b fe ff ff       	call   1120 <memset@plt>
    12a5:	48 8d 85 60 ff ff ff 	lea    -0xa0(%rbp),%rax
    12ac:	48 83 c0 08          	add    $0x8,%rax
    12b0:	48 89 c7             	mov    %rax,%rdi
    12b3:	e8 78 fe ff ff       	call   1130 <sigemptyset@plt>
    12b8:	48 8d 05 6a ff ff ff 	lea    -0x96(%rip),%rax        # 1229 <segill_sigaction>
    12bf:	48 89 85 60 ff ff ff 	mov    %rax,-0xa0(%rbp)
    12c6:	c7 45 e8 04 00 00 00 	movl   $0x4,-0x18(%rbp)
    12cd:	48 8d 85 60 ff ff ff 	lea    -0xa0(%rbp),%rax
    12d4:	ba 00 00 00 00       	mov    $0x0,%edx
    12d9:	48 89 c6             	mov    %rax,%rsi
    12dc:	bf 04 00 00 00       	mov    $0x4,%edi
    12e1:	e8 fa fd ff ff       	call   10e0 <sigaction@plt>
    12e6:	0f 0b                	ud2
    12e8:	83 bd 5c ff ff ff 02 	cmpl   $0x2,-0xa4(%rbp)
    12ef:	74 1a                	je     130b <main+0xaa>
    12f1:	0f 0b                	ud2
    12f3:	48 8d 3d 0a 0d 00 00 	lea    0xd0a(%rip),%rdi        # 2004 <_IO_stdin_used+0x4>
    12fa:	e8 d1 fd ff ff       	call   10d0 <puts@plt>
    12ff:	0f 0b                	ud2
    1301:	b8 01 00 00 00       	mov    $0x1,%eax
    1306:	e9 2e 01 00 00       	jmp    1439 <main+0x1d8>
    130b:	0f 0b                	ud2
    130d:	48 8b 85 50 ff ff ff 	mov    -0xb0(%rbp),%rax
    1314:	48 83 c0 08          	add    $0x8,%rax
    1318:	48 8b 00             	mov    (%rax),%rax
    131b:	48 89 c7             	mov    %rax,%rdi
    131e:	e8 cd fd ff ff       	call   10f0 <strlen@plt>
    1323:	48 83 f8 0c          	cmp    $0xc,%rax
    1327:	0f 85 05 01 00 00    	jne    1432 <main+0x1d1>
    132d:	0f 0b                	ud2
    132f:	48 8b 85 50 ff ff ff 	mov    -0xb0(%rbp),%rax
    1336:	48 83 c0 08          	add    $0x8,%rax
    133a:	48 8b 00             	mov    (%rax),%rax
    133d:	ba 03 00 00 00       	mov    $0x3,%edx
    1342:	48 8d 35 d2 0c 00 00 	lea    0xcd2(%rip),%rsi        # 201b <_IO_stdin_used+0x1b>
# 

[10]===============================Agent (Exploiter)================================
I can see the program uses `ud2` instructions (undefined instruction) which will trigger SIGILL signals. This is likely an anti-debugging technique. The program sets up a signal handler for SIGILL at the beginning. Let me look at the segill_sigaction handler:

[10]=============================Tool Call (Exploiter)==============================
sandbox_run(input='objdump -d behindthescenes | grep -B 5 -A 30 "<segill_sigaction>:"', user='user', session='main', timeout=30)

[10]============================Tool Output (Exploiter)=============================
0000000000001220 <frame_dummy>:
    1220:	f3 0f 1e fa          	endbr64
    1224:	e9 77 ff ff ff       	jmp    11a0 <register_tm_clones>

0000000000001229 <segill_sigaction>:
    1229:	f3 0f 1e fa          	endbr64
    122d:	55                   	push   %rbp
    122e:	48 89 e5             	mov    %rsp,%rbp
    1231:	89 7d ec             	mov    %edi,-0x14(%rbp)
    1234:	48 89 75 e0          	mov    %rsi,-0x20(%rbp)
    1238:	48 89 55 d8          	mov    %rdx,-0x28(%rbp)
    123c:	48 8b 45 d8          	mov    -0x28(%rbp),%rax
    1240:	48 89 45 f8          	mov    %rax,-0x8(%rbp)
    1244:	48 8b 45 f8          	mov    -0x8(%rbp),%rax
    1248:	48 8b 80 a8 00 00 00 	mov    0xa8(%rax),%rax
    124f:	48 8d 50 02          	lea    0x2(%rax),%rdx
    1253:	48 8b 45 f8          	mov    -0x8(%rbp),%rax
    1257:	48 89 90 a8 00 00 00 	mov    %rdx,0xa8(%rax)
    125e:	90                   	nop
    125f:	5d                   	pop    %rbp
    1260:	c3                   	ret

0000000000001261 <main>:
    1261:	f3 0f 1e fa          	endbr64
    1265:	55                   	push   %rbp
    1266:	48 89 e5             	mov    %rsp,%rbp
    1269:	48 81 ec b0 00 00 00 	sub    $0xb0,%rsp
    1270:	89 bd 5c ff ff ff    	mov    %edi,-0xa4(%rbp)
    1276:	48 89 b5 50 ff ff ff 	mov    %rsi,-0xb0(%rbp)
    127d:	64 48 8b 04 25 28 00 	mov    %fs:0x28,%rax
    1284:	00 00 
    1286:	48 89 45 f8          	mov    %rax,-0x8(%rbp)
    128a:	31 c0                	xor    %eax,%eax
    128c:	48 8d 85 60 ff ff ff 	lea    -0xa0(%rbp),%rax
    1293:	ba 98 00 00 00       	mov    $0x98,%edx
# 

[11]===============================Agent (Exploiter)================================
The signal handler modifies the instruction pointer (RIP) by adding 2 to it, effectively skipping the `ud2` instruction. Let me use radare2 for better analysis:

[11]=============================Tool Call (Exploiter)==============================
sandbox_run(input='r2 -q -c "aaa; pdf @ main" behindthescenes', user='user', session='main', timeout=30)

[11]============================Tool Output (Exploiter)=============================
WARN: Relocs has not been applied. Please use `-e bin.relocs.apply=true` or `-e bin.cache=true` next time
INFO: Analyze all flags starting with sym. and entry0 (aa)
INFO: Analyze imports (af@@@i)
INFO: Analyze entrypoint (af@ entry0)
INFO: Analyze symbols (af@@@s)
INFO: Analyze all functions arguments/locals (afva@@@F)
INFO: Analyze function calls (aac)
INFO: Analyze len bytes of instructions for references (aar)
INFO: Finding and parsing C++ vtables (avrr)
INFO: Analyzing methods (af @@ method.*)
INFO: Recovering local variables (afva@@@F)
INFO: Type matching analysis for all functions (aaft)
INFO: Propagate noreturn information (aanr)
INFO: Use -AA or aaaa to perform additional experimental analysis
            [31m[31m; ICOD XREF from entry0 @ [31m0x1161(r)[31m[0m
[36m┌[0m 135: int [31mmain[0m (int argc, char **argv);
[36m│[0m `- args(rdi, rsi) vars(5:sp[0x10..0xb8])
[36m│[0m           [32m0x00001261[0m      [36mf3[36m0f[36m1e[36mfa[0m       [36mendbr64[0m[0m[0m
[36m│[0m           [32m0x00001265[0m      [33m55[0m             [35mpush[36m rbp[0m[0m[0m
[36m│[0m           [32m0x00001266[0m      [33m48[36m89[36me5[0m         [36mmov[36m rbp[0m,[36m rsp[0m[0m[0m
[36m│[0m           [32m0x00001269[0m      [33m48[36m81[36mec[36mb0[32m00[32m..   [33msub[36m rsp[0m,[36m[36m [33m0xb0[0m[0m[0m
[36m│[0m           [32m0x00001270[0m      [36m89[36mbd[33m5c[31mff[31mff[31mff[0m   [36mmov dword[36m [0m[[36mvar_a4h[0m][36m[0m,[36m edi[0m[0m[0m    [37m; argc[0m
[36m│[0m           [32m0x00001276[0m      [33m48[36m89[36mb5[33m50[31mff[31m..   [36mmov qword[36m [0m[[36mvar_b0h[0m][36m[0m,[36m rsi[0m[0m[0m    [37m; argv[0m
[36m│[0m           [32m0x0000127d[0m      [33m64[33m48[36m8b[36m04[33m25[33m..   [36mmov[36m rax[0m,[36m qword fs:[0m[[33m0x28[0m][36m[0m[0m[0m
[36m│[0m           [32m0x00001286[0m      [33m48[36m89[33m45[36mf8[0m       [36mmov qword[36m [0m[[36mvar_8h[0m][36m[0m,[36m rax[0m[0m[0m
[36m│[0m           [32m0x0000128a[0m      [33m31[36mc0[0m           [33mxor[36m eax[0m,[36m eax[0m[0m[0m
[36m│[0m           [32m0x0000128c[0m      [33m48[36m8d[36m85[33m60[31mff[31m..   [36mlea[36m rax[0m,[36m [0m[[36mact[0m][36m[0m[0m[0m
[36m│[0m           [32m0x00001293[0m      [36mba[36m98[32m00[32m00[32m00[0m     [36mmov[36m edx[0m,[36m[36m [33m0x98[0m[0m[0m               [37m; size_t n[0m
[36m│[0m           [32m0x00001298[0m      [36mbe[32m00[32m00[32m00[32m00[0m     [36mmov[36m esi[0m,[36m [33m0[0m[0m[0m                  [37m; int c[0m
[36m│[0m           [32m0x0000129d[0m      [33m48[36m89[36mc7[0m         [36mmov[36m rdi[0m,[36m rax[0m[0m[0m                [37m; void *s[0m
[36m│[0m           [32m0x000012a0[0m      [36me8[33m7b[36mfe[31mff[31mff[0m     [1;32mcall[36m sym.imp.memset[0m[0m[0m[31m         [31m; void *memset(void *s, int c, size_t n)[0m
[36m│[0m           [32m0x000012a5[0m      [33m48[36m8d[36m85[33m60[31mff[31m..   [36mlea[36m rax[0m,[36m [0m[[36mact[0m][36m[0m[0m[0m
[36m│[0m           [32m0x000012ac[0m      [33m48[36m83[36mc0[36m08[0m       [33madd[36m rax[0m,[36m [33m8[0m[0m[0m
[36m│[0m           [32m0x000012b0[0m      [33m48[36m89[36mc7[0m         [36mmov[36m rdi[0m,[36m rax[0m[0m[0m
[36m│[0m           [32m0x000012b3[0m      [36me8[33m78[36mfe[31mff[31mff[0m     [1;32mcall[36m sym.imp.sigemptyset[0m[0m[0m
[36m│[0m           [32m0x000012b8[0m      [33m48[36m8d[36m05[33m6a[31mff[31m..   [36mlea[36m rax[0m,[36m[36m [0m[[36msym.segill_sigaction[0m][36m[0m[0m[31m [31m; 0x1229[0m
[36m│[0m           [32m0x000012bf[0m      [33m48[36m89[36m85[33m60[31mff[31m..   [36mmov qword[36m [0m[[36mact[0m][36m[0m,[36m rax[0m[0m[0m
[36m│[0m           [32m0x000012c6[0m      [36mc7[33m45[36me8[36m04[32m00[32m..   [36mmov dword[36m [0m[[36mvar_18h[0m][36m[0m,[36m [33m4[0m[0m[0m
[36m│[0m           [32m0x000012cd[0m      [33m48[36m8d[36m85[33m60[31mff[31m..   [36mlea[36m rax[0m,[36m [0m[[36mact[0m][36m[0m[0m[0m
[36m│[0m           [32m0x000012d4[0m      [36mba[32m00[32m00[32m00[32m00[0m     [36mmov[36m edx[0m,[36m [33m0[0m[0m[0m                  [37m; struct sigaction *oldact[0m
[36m│[0m           [32m0x000012d9[0m      [33m48[36m89[36mc6[0m         [36mmov[36m rsi[0m,[36m rax[0m[0m[0m                [37m; const struct sigaction *act[0m
[36m│[0m           [32m0x000012dc[0m      [36mbf[36m04[32m00[32m00[32m00[0m     [36mmov[36m edi[0m,[36m [33m4[0m[0m[0m                  [37m; int signum[0m
[36m│[0m           [32m0x000012e1[0m      [36me8[36mfa[36mfd[31mff[31mff[0m     [1;32mcall[36m sym.imp.sigaction[0m[0m[0m[31m      [31m; int sigaction(int signum, const struct sigaction *act, struct sigaction *oldact)[0m
[36m└[0m           [32m0x000012e6[0m      [36m0f[36m0b[0m           [1;31mud2[0m[0m[0m
# 

[12]===============================Agent (Exploiter)================================
Let me continue looking at the rest of main:

[12]=============================Tool Call (Exploiter)==============================
sandbox_run(input='r2 -q -c "aaa; s main; pd 200" behindthescenes | head -100', user='user', session='main', timeout=30)

[12]============================Tool Output (Exploiter)=============================
WARN: Relocs has not been applied. Please use `-e bin.relocs.apply=true` or `-e bin.cache=true` next time
INFO: Analyze all flags starting with sym. and entry0 (aa)
INFO: Analyze imports (af@@@i)
INFO: Analyze entrypoint (af@ entry0)
INFO: Analyze symbols (af@@@s)
INFO: Analyze all functions arguments/locals (afva@@@F)
INFO: Analyze function calls (aac)
INFO: Analyze len bytes of instructions for references (aar)
INFO: Finding and parsing C++ vtables (avrr)
INFO: Analyzing methods (af @@ method.*)
INFO: Recovering local variables (afva@@@F)
INFO: Type matching analysis for all functions (aaft)
INFO: Propagate noreturn information (aanr)
INFO: Use -AA or aaaa to perform additional experimental analysis
            [31m[31m; ICOD XREF from entry0 @ [31m0x1161(r)[31m[0m
[36m┌[0m 135: int [31mmain[0m (int argc, char **argv);
[36m│[0m `- args(rdi, rsi) vars(5:sp[0x10..0xb8])
[36m│[0m           [32m0x00001261[0m      [36mf3[36m0f[36m1e[36mfa[0m       [36mendbr64[0m[0m[0m
[36m│[0m           [32m0x00001265[0m      [33m55[0m             [35mpush[36m rbp[0m[0m[0m
[36m│[0m           [32m0x00001266[0m      [33m48[36m89[36me5[0m         [36mmov[36m rbp[0m,[36m rsp[0m[0m[0m
[36m│[0m           [32m0x00001269[0m      [33m48[36m81[36mec[36mb0[32m00[32m..   [33msub[36m rsp[0m,[36m[36m [33m0xb0[0m[0m[0m
[36m│[0m           [32m0x00001270[0m      [36m89[36mbd[33m5c[31mff[31mff[31mff[0m   [36mmov dword[36m [0m[[36mvar_a4h[0m][36m[0m,[36m edi[0m[0m[0m    [37m; argc[0m
[36m│[0m           [32m0x00001276[0m      [33m48[36m89[36mb5[33m50[31mff[31m..   [36mmov qword[36m [0m[[36mvar_b0h[0m][36m[0m,[36m rsi[0m[0m[0m    [37m; argv[0m
[36m│[0m           [32m0x0000127d[0m      [33m64[33m48[36m8b[36m04[33m25[33m..   [36mmov[36m rax[0m,[36m qword fs:[0m[[33m0x28[0m][36m[0m[0m[0m
[36m│[0m           [32m0x00001286[0m      [33m48[36m89[33m45[36mf8[0m       [36mmov qword[36m [0m[[36mvar_8h[0m][36m[0m,[36m rax[0m[0m[0m
[36m│[0m           [32m0x0000128a[0m      [33m31[36mc0[0m           [33mxor[36m eax[0m,[36m eax[0m[0m[0m
[36m│[0m           [32m0x0000128c[0m      [33m48[36m8d[36m85[33m60[31mff[31m..   [36mlea[36m rax[0m,[36m [0m[[36mact[0m][36m[0m[0m[0m
[36m│[0m           [32m0x00001293[0m      [36mba[36m98[32m00[32m00[32m00[0m     [36mmov[36m edx[0m,[36m[36m [33m0x98[0m[0m[0m               [37m; size_t n[0m
[36m│[0m           [32m0x00001298[0m      [36mbe[32m00[32m00[32m00[32m00[0m     [36mmov[36m esi[0m,[36m [33m0[0m[0m[0m                  [37m; int c[0m
[36m│[0m           [32m0x0000129d[0m      [33m48[36m89[36mc7[0m         [36mmov[36m rdi[0m,[36m rax[0m[0m[0m                [37m; void *s[0m
[36m│[0m           [32m0x000012a0[0m      [36me8[33m7b[36mfe[31mff[31mff[0m     [1;32mcall[36m sym.imp.memset[0m[0m[0m[31m         [31m; void *memset(void *s, int c, size_t n)[0m
[36m│[0m           [32m0x000012a5[0m      [33m48[36m8d[36m85[33m60[31mff[31m..   [36mlea[36m rax[0m,[36m [0m[[36mact[0m][36m[0m[0m[0m
[36m│[0m           [32m0x000012ac[0m      [33m48[36m83[36mc0[36m08[0m       [33madd[36m rax[0m,[36m [33m8[0m[0m[0m
[36m│[0m           [32m0x000012b0[0m      [33m48[36m89[36mc7[0m         [36mmov[36m rdi[0m,[36m rax[0m[0m[0m
[36m│[0m           [32m0x000012b3[0m      [36me8[33m78[36mfe[31mff[31mff[0m     [1;32mcall[36m sym.imp.sigemptyset[0m[0m[0m
[36m│[0m           [32m0x000012b8[0m      [33m48[36m8d[36m05[33m6a[31mff[31m..   [36mlea[36m rax[0m,[36m[36m [0m[[36msym.segill_sigaction[0m][36m[0m[0m[31m [31m; 0x1229[0m
[36m│[0m           [32m0x000012bf[0m      [33m48[36m89[36m85[33m60[31mff[31m..   [36mmov qword[36m [0m[[36mact[0m][36m[0m,[36m rax[0m[0m[0m
[36m│[0m           [32m0x000012c6[0m      [36mc7[33m45[36me8[36m04[32m00[32m..   [36mmov dword[36m [0m[[36mvar_18h[0m][36m[0m,[36m [33m4[0m[0m[0m
[36m│[0m           [32m0x000012cd[0m      [33m48[36m8d[36m85[33m60[31mff[31m..   [36mlea[36m rax[0m,[36m [0m[[36mact[0m][36m[0m[0m[0m
[36m│[0m           [32m0x000012d4[0m      [36mba[32m00[32m00[32m00[32m00[0m     [36mmov[36m edx[0m,[36m [33m0[0m[0m[0m                  [37m; struct sigaction *oldact[0m
[36m│[0m           [32m0x000012d9[0m      [33m48[36m89[36mc6[0m         [36mmov[36m rsi[0m,[36m rax[0m[0m[0m                [37m; const struct sigaction *act[0m
[36m│[0m           [32m0x000012dc[0m      [36mbf[36m04[32m00[32m00[32m00[0m     [36mmov[36m edi[0m,[36m [33m4[0m[0m[0m                  [37m; int signum[0m
[36m│[0m           [32m0x000012e1[0m      [36me8[36mfa[36mfd[31mff[31mff[0m     [1;32mcall[36m sym.imp.sigaction[0m[0m[0m[31m      [31m; int sigaction(int signum, const struct sigaction *act, struct sigaction *oldact)[0m
[36m└[0m           [32m0x000012e6[0m      [36m0f[36m0b[0m           [1;31mud2[0m[0m[0m
            [32m0x000012e8[0m      [36m83[36mbd[33m5c[31mff[31mff[31m..   [33mcmp dword [0m[[36mrbp [0m-[36m[36m [33m0xa4[0m][36m[0m,[36m [33m2[0m[0m[0m
        [36m┌[0m[36m─[0m[36m<[0m [32m0x000012ef[0m      [33m74[36m1a[0m           [32mje[36m [33m0x130b[0m[0m[0m
        [36m│[0m   [32m0x000012f1[0m      [36m0f[36m0b[0m           [1;31mud2[0m[0m[0m
        [36m│[0m   [32m0x000012f3[0m      [33m48[36m8d[33m3d[36m0a[36m0d[32m..   [36mlea[36m rdi[0m,[36m[36m str.._challenge__password_[0m[0m[31m [31m; 0x2004[31m [31m; "./challenge <password>"[0m
        [36m│[0m   [32m0x000012fa[0m      [36me8[36md1[36mfd[31mff[31mff[0m     [1;32mcall[36m sym.imp.puts[0m[0m[0m[31m           [31m; int puts(const char *s)[0m
        [36m│[0m   [32m0x000012ff[0m      [36m0f[36m0b[0m           [1;31mud2[0m[0m[0m
        [36m│[0m   [32m0x00001301[0m      [36mb8[36m01[32m00[32m00[32m00[0m     [36mmov[36m eax[0m,[36m [33m1[0m[0m[0m
       [36m┌[0m[36m─[0m[36m─[0m[36m<[0m [32m0x00001306[0m      [36me9[33m2e[36m01[32m00[32m00[0m     [32mjmp[36m [33m0x1439[0m[0m[0m
       [36m│[0m[36m│[0m   [31m[31m; CODE XREF from main @ [31m+0x8e(x)[31m[0m
       [36m│[0m[36m└[0m[36m─[0m[36m>[0m [32m0x0000130b[0m      [36m0f[36m0b[0m           [1;31mud2[0m[0m[0m
       [36m│[0m    [32m0x0000130d[0m      [33m48[36m8b[36m85[33m50[31mff[31m..   [36mmov[36m rax[0m,[36m qword [0m[[36mrbp [0m-[36m[36m [33m0xb0[0m][36m[0m[0m[0m
       [36m│[0m    [32m0x00001314[0m      [33m48[36m83[36mc0[36m08[0m       [33madd[36m rax[0m,[36m [33m8[0m[0m[0m
       [36m│[0m    [32m0x00001318[0m      [33m48[36m8b[32m00[0m         [36mmov[36m rax[0m,[36m qword [0m[[36mrax[0m][36m[0m[0m[0m
       [36m│[0m    [32m0x0000131b[0m      [33m48[36m89[36mc7[0m         [36mmov[36m rdi[0m,[36m rax[0m[0m[0m
       [36m│[0m    [32m0x0000131e[0m      [36me8[36mcd[36mfd[31mff[31mff[0m     [1;32mcall[36m sym.imp.strlen[0m[0m[0m[31m         [31m; size_t strlen(const char *s)[0m
       [36m│[0m    [32m0x00001323[0m      [33m48[36m83[36mf8[36m0c[0m       [33mcmp[36m rax[0m,[36m [33m0xc[0m[0m[0m
       [36m│[0m[36m┌[0m[36m─[0m[36m<[0m [32m0x00001327[0m      [36m0f[36m85[36m05[36m01[32m00[32m00[0m   [32mjne[36m [33m0x1432[0m[0m[0m
       [36m│[0m[36m│[0m   [32m0x0000132d[0m      [36m0f[36m0b[0m           [1;31mud2[0m[0m[0m
       [36m│[0m[36m│[0m   [32m0x0000132f[0m      [33m48[36m8b[36m85[33m50[31mff[31m..   [36mmov[36m rax[0m,[36m qword [0m[[36mrbp [0m-[36m[36m [33m0xb0[0m][36m[0m[0m[0m
       [36m│[0m[36m│[0m   [32m0x00001336[0m      [33m48[36m83[36mc0[36m08[0m       [33madd[36m rax[0m,[36m [33m8[0m[0m[0m
       [36m│[0m[36m│[0m   [32m0x0000133a[0m      [33m48[36m8b[32m00[0m         [36mmov[36m rax[0m,[36m qword [0m[[36mrax[0m][36m[0m[0m[0m
       [36m│[0m[36m│[0m   [32m0x0000133d[0m      [36mba[36m03[32m00[32m00[32m00[0m     [36mmov[36m edx[0m,[36m [33m3[0m[0m[0m
       [36m│[0m[36m│[0m   [32m0x00001342[0m      [33m48[36m8d[33m35[36md2[36m0c[32m..   [36mlea[36m rsi[0m,[36m[36m [0m[[33m0x0000201b[0m][36m[0m[0m[31m       [31m; "Itz"[0m
       [36m│[0m[36m│[0m   [32m0x00001349[0m      [33m48[36m89[36mc7[0m         [36mmov[36m rdi[0m,[36m rax[0m[0m[0m
       [36m│[0m[36m│[0m   [32m0x0000134c[0m      [36me8[33m6f[36mfd[31mff[31mff[0m     [1;32mcall[36m sym.imp.strncmp[0m[0m[0m[31m        [31m; int strncmp(const char *s1, const char *s2, size_t n)[0m
       [36m│[0m[36m│[0m   [32m0x00001351[0m      [36m85[36mc0[0m           [33mtest[36m eax[0m,[36m eax[0m[0m[0m
      [36m┌[0m[36m─[0m[36m─[0m[36m─[0m[36m<[0m [32m0x00001353[0m      [36m0f[36m85[36md0[32m00[32m00[32m00[0m   [32mjne[36m [33m0x1429[0m[0m[0m
      [36m│[0m[36m│[0m[36m│[0m   [32m0x00001359[0m      [36m0f[36m0b[0m           [1;31mud2[0m[0m[0m
      [36m│[0m[36m│[0m[36m│[0m   [32m0x0000135b[0m      [33m48[36m8b[36m85[33m50[31mff[31m..   [36mmov[36m rax[0m,[36m qword [0m[[36mrbp [0m-[36m[36m [33m0xb0[0m][36m[0m[0m[0m
      [36m│[0m[36m│[0m[36m│[0m   [32m0x00001362[0m      [33m48[36m83[36mc0[36m08[0m       [33madd[36m rax[0m,[36m [33m8[0m[0m[0m
      [36m│[0m[36m│[0m[36m│[0m 

[13]===============================Agent (Exploiter)================================
I can see the program is checking:
1. If argc == 2 (needs one argument)
2. If the password length is 12 characters
3. If the password starts with "Itz"

Let me look for more string comparisons:

[13]=============================Tool Call (Exploiter)==============================
sandbox_run(input='strings -a behindthescenes | grep -E "^[A-Za-z0-9]{3,}$" | head -20', user='user', session='main', timeout=30)

[13]============================Tool Output (Exploiter)=============================
strncmp
puts
printf
strlen
sigemptyset
memset
sigaction
main
# 

[14]===============================Agent (Exploiter)================================
Let me check the data section more carefully:

[14]=============================Tool Call (Exploiter)==============================
sandbox_run(input='r2 -q -c "aaa; iz" behindthescenes', user='user', session='main', timeout=30)

[14]============================Tool Output (Exploiter)=============================
WARN: Relocs has not been applied. Please use `-e bin.relocs.apply=true` or `-e bin.cache=true` next time
INFO: Analyze all flags starting with sym. and entry0 (aa)
INFO: Analyze imports (af@@@i)
INFO: Analyze entrypoint (af@ entry0)
INFO: Analyze symbols (af@@@s)
INFO: Analyze all functions arguments/locals (afva@@@F)
INFO: Analyze function calls (aac)
INFO: Analyze len bytes of instructions for references (aar)
INFO: Finding and parsing C++ vtables (avrr)
INFO: Analyzing methods (af @@ method.*)
INFO: Recovering local variables (afva@@@F)
INFO: Type matching analysis for all functions (aaft)
INFO: Propagate noreturn information (aanr)
INFO: Use -AA or aaaa to perform additional experimental analysis
[Strings]
nth paddr      vaddr      len size section type  string
―――――――――――――――――――――――――――――――――――――――――――――――――――――――
0   0x00002004 0x00002004 22  23   .rodata ascii ./challenge <password>
1   0x0000202b 0x0000202b 10  11   .rodata ascii > HTB{%s}\n
# 

[15]===============================Agent (Exploiter)================================
Let me look at the strings around the "Itz" comparison:

[15]=============================Tool Call (Exploiter)==============================
sandbox_run(input='r2 -q -c "aaa; px 100 @ 0x201b" behindthescenes', user='user', session='main', timeout=30)

[15]============================Tool Output (Exploiter)=============================
WARN: Relocs has not been applied. Please use `-e bin.relocs.apply=true` or `-e bin.cache=true` next time
INFO: Analyze all flags starting with sym. and entry0 (aa)
INFO: Analyze imports (af@@@i)
INFO: Analyze entrypoint (af@ entry0)
INFO: Analyze symbols (af@@@s)
INFO: Analyze all functions arguments/locals (afva@@@F)
INFO: Analyze function calls (aac)
INFO: Analyze len bytes of instructions for references (aar)
INFO: Finding and parsing C++ vtables (avrr)
INFO: Analyzing methods (af @@ method.*)
INFO: Recovering local variables (afva@@@F)
INFO: Type matching analysis for all functions (aaft)
INFO: Propagate noreturn information (aanr)
INFO: Use -AA or aaaa to perform additional experimental analysis
[32m- offset -  1B1C 1D1E 1F20 2122 2324 2526 2728 292A  BCDEF0123456789A
[0m[32m0x0000201b[0m  [33m49[0m[33m74[0m [33m7a[0m[32m00[0m [33m5f[0m[33m30[0m [33m6e[0m[32m00[0m [33m4c[0m[33m79[0m [33m5f[0m[32m00[0m [33m55[0m[33m44[0m [33m32[0m[32m00[0m  [33mI[0m[33mt[0m[33mz[0m[32m.[0m[33m_[0m[33m0[0m[33mn[0m[32m.[0m[33mL[0m[33my[0m[33m_[0m[32m.[0m[33mU[0m[33mD[0m[33m2[0m[32m.[0m
[32m0x0000202b[0m  [33m3e[0m[33m20[0m [33m48[0m[33m54[0m [33m42[0m[33m7b[0m [33m25[0m[33m73[0m [33m7d[0m[36m0a[0m [32m00[0m[32m00[0m [32m00[0m[36m01[0m [36m1b[0m[36m03[0m  [33m>[0m[33m [0m[33mH[0m[33mT[0m[33mB[0m[33m{[0m[33m%[0m[33ms[0m[33m}[0m[36m.[0m[32m.[0m[32m.[0m[32m.[0m[36m.[0m[36m.[0m[36m.[0m
[32m0x0000203b[0m  [33m3b[0m[33m4c[0m [32m00[0m[32m00[0m [32m00[0m[36m08[0m [32m00[0m[32m00[0m [32m00[0m[36me8[0m [36mef[0m[31mff[0m [31mff[0m[36m80[0m [32m00[0m[32m00[0m  [33m;[0m[33mL[0m[32m.[0m[32m.[0m[32m.[0m[36m.[0m[32m.[0m[32m.[0m[32m.[0m[36m.[0m[36m.[0m[31m.[0m[31m.[0m[36m.[0m[32m.[0m[32m.[0m
[32m0x0000204b[0m  [32m00[0m[33m78[0m [36mf0[0m[31mff[0m [31mff[0m[36ma8[0m [32m00[0m[32m00[0m [32m00[0m[36m88[0m [36mf0[0m[31mff[0m [31mff[0m[36mc0[0m [32m00[0m[32m00[0m  [32m.[0m[33mx[0m[36m.[0m[31m.[0m[31m.[0m[36m.[0m[32m.[0m[32m.[0m[32m.[0m[36m.[0m[36m.[0m[31m.[0m[31m.[0m[36m.[0m[32m.[0m[32m.[0m
[32m0x0000205b[0m  [32m00[0m[36m08[0m [36mf1[0m[31mff[0m [31mff[0m[33m68[0m [32m00[0m[32m00[0m [32m00[0m[36mf1[0m [36mf1[0m[31mff[0m [31mff[0m[36md8[0m [32m00[0m[32m00[0m  [32m.[0m[36m.[0m[36m.[0m[31m.[0m[31m.[0m[33mh[0m[32m.[0m[32m.[0m[32m.[0m[36m.[0m[36m.[0m[31m.[0m[31m.[0m[36m.[0m[32m.[0m[32m.[0m
[32m0x0000206b[0m  [32m00[0m[33m29[0m [36mf2[0m[31mff[0m [31mff[0m[36mf8[0m [32m00[0m[32m00[0m [32m00[0m[36m18[0m [36mf4[0m[31mff[0m [31mff[0m[36m18[0m [36m01[0m[32m00[0m  [32m.[0m[33m)[0m[36m.[0m[31m.[0m[31m.[0m[36m.[0m[32m.[0m[32m.[0m[32m.[0m[36m.[0m[36m.[0m[31m.[0m[31m.[0m[36m.[0m[36m.[0m[32m.[0m
[32m0x0000207b[0m  [32m00[0m[36m88[0m [36mf4[0m[31mff[0m                                [32m.[0m[36m.[0m[36m.[0m[31m.[0m
# 

[16]===============================Agent (Exploiter)================================
I can see the strings are stored separately:
- "Itz" at 0x201b
- "_0n" at 0x201f
- "Ly_" at 0x2023
- "UD2" at 0x2027

This suggests the password might be "Itz_0nLy_UD2". Let me trace through more of the code to confirm:

[16]=============================Tool Call (Exploiter)==============================
sandbox_run(input='objdump -d behindthescenes | grep -A 100 "1342:" | head -50', user='user', session='main', timeout=30)

[16]============================Tool Output (Exploiter)=============================
    1342:	48 8d 35 d2 0c 00 00 	lea    0xcd2(%rip),%rsi        # 201b <_IO_stdin_used+0x1b>
    1349:	48 89 c7             	mov    %rax,%rdi
    134c:	e8 6f fd ff ff       	call   10c0 <strncmp@plt>
    1351:	85 c0                	test   %eax,%eax
    1353:	0f 85 d0 00 00 00    	jne    1429 <main+0x1c8>
    1359:	0f 0b                	ud2
    135b:	48 8b 85 50 ff ff ff 	mov    -0xb0(%rbp),%rax
    1362:	48 83 c0 08          	add    $0x8,%rax
    1366:	48 8b 00             	mov    (%rax),%rax
    1369:	48 83 c0 03          	add    $0x3,%rax
    136d:	ba 03 00 00 00       	mov    $0x3,%edx
    1372:	48 8d 35 a6 0c 00 00 	lea    0xca6(%rip),%rsi        # 201f <_IO_stdin_used+0x1f>
    1379:	48 89 c7             	mov    %rax,%rdi
    137c:	e8 3f fd ff ff       	call   10c0 <strncmp@plt>
    1381:	85 c0                	test   %eax,%eax
    1383:	0f 85 97 00 00 00    	jne    1420 <main+0x1bf>
    1389:	0f 0b                	ud2
    138b:	48 8b 85 50 ff ff ff 	mov    -0xb0(%rbp),%rax
    1392:	48 83 c0 08          	add    $0x8,%rax
    1396:	48 8b 00             	mov    (%rax),%rax
    1399:	48 83 c0 06          	add    $0x6,%rax
    139d:	ba 03 00 00 00       	mov    $0x3,%edx
    13a2:	48 8d 35 7a 0c 00 00 	lea    0xc7a(%rip),%rsi        # 2023 <_IO_stdin_used+0x23>
    13a9:	48 89 c7             	mov    %rax,%rdi
    13ac:	e8 0f fd ff ff       	call   10c0 <strncmp@plt>
    13b1:	85 c0                	test   %eax,%eax
    13b3:	75 62                	jne    1417 <main+0x1b6>
    13b5:	0f 0b                	ud2
    13b7:	48 8b 85 50 ff ff ff 	mov    -0xb0(%rbp),%rax
    13be:	48 83 c0 08          	add    $0x8,%rax
    13c2:	48 8b 00             	mov    (%rax),%rax
    13c5:	48 83 c0 09          	add    $0x9,%rax
    13c9:	ba 03 00 00 00       	mov    $0x3,%edx
    13ce:	48 8d 35 52 0c 00 00 	lea    0xc52(%rip),%rsi        # 2027 <_IO_stdin_used+0x27>
    13d5:	48 89 c7             	mov    %rax,%rdi
    13d8:	e8 e3 fc ff ff       	call   10c0 <strncmp@plt>
    13dd:	85 c0                	test   %eax,%eax
    13df:	75 2d                	jne    140e <main+0x1ad>
    13e1:	0f 0b                	ud2
    13e3:	48 8b 85 50 ff ff ff 	mov    -0xb0(%rbp),%rax
    13ea:	48 83 c0 08          	add    $0x8,%rax
    13ee:	48 8b 00             	mov    (%rax),%rax
    13f1:	48 89 c6             	mov    %rax,%rsi
    13f4:	48 8d 3d 30 0c 00 00 	lea    0xc30(%rip),%rdi        # 202b <_IO_stdin_used+0x2b>
    13fb:	b8 00 00 00 00       	mov    $0x0,%eax
    1400:	e8 0b fd ff ff       	call   1110 <printf@plt>
    1405:	0f 0b                	ud2
    1407:	b8 00 00 00 00       	mov    $0x0,%eax
    140c:	eb 2b                	jmp    1439 <main+0x1d8>
    140e:	0f 0b                	ud2
# 

[17]===============================Agent (Exploiter)================================
Perfect! I can see the password checking logic:
1. Check if password[0:3] == "Itz" 
2. Check if password[3:6] == "_0n" (offset +3)
3. Check if password[6:9] == "Ly_" (offset +6)
4. Check if password[9:12] == "UD2" (offset +9)

So the password is "Itz_0nLy_UD2". Let me test it:

[17]=============================Tool Call (Exploiter)==============================
sandbox_run(input='./behindthescenes "Itz_0nLy_UD2"', user='user', session='main', timeout=30)

[17]============================Tool Output (Exploiter)=============================
> HTB{Itz_0nLy_UD2}
# 

[18]===============================Agent (Exploiter)================================
Excellent! I found the flag: **HTB{Itz_0nLy_UD2}**

Let me create a report with my analysis:

[18]=============================Tool Call (Exploiter)==============================
create_report(content='# Behind The Scenes - HackTheBox Challenge Analysis\n\n## Challenge Overview\nThe challenge presents a binary that claims to make decompilation harder by using anti-debugging techniques. The goal is to reverse engineer the program and find the hidden flag.\n\n## Technical Analysis\n\n### Binary Information\n- **File Type**: ELF 64-bit LSB pie executable, x86-64\n- **Architecture**: x86-64\n- **Linking**: Dynamically linked\n- **Symbols**: Not stripped\n\n### Anti-Debugging Technique\nThe program uses an interesting anti-debugging technique involving illegal instructions:\n\n1. **Signal Handler Setup**: The program registers a SIGILL (illegal instruction) signal handler using `sigaction()`\n2. **UD2 Instructions**: Throughout the code, `ud2` (undefined instruction) opcodes are placed after each check\n3. **Signal Handler Logic**: When a `ud2` instruction is hit, it triggers SIGILL. The signal handler (`segill_sigaction`) adds 2 to the instruction pointer (RIP), effectively skipping the `ud2` instruction\n\nThis technique makes static analysis more difficult and can confuse debuggers that don\'t handle the signal properly.\n\n### Password Validation Logic\nThe program expects exactly one command-line argument (the password) and validates it through multiple checks:\n\n1. **Argument Count**: Checks if argc == 2\n2. **Password Length**: Verifies the password is exactly 12 characters long using `strlen()`\n3. **Sequential Validation**: The password is checked in 4 parts, each 3 characters long:\n   - Position 0-2: Must match "Itz"\n   - Position 3-5: Must match "_0n"\n   - Position 6-8: Must match "Ly_"\n   - Position 9-11: Must match "UD2"\n\n### Key Findings\n- The password components are stored separately in the `.rodata` section\n- Each check uses `strncmp()` with a length of 3\n- The complete password is: **Itz_0nLy_UD2**\n- The flag format follows HTB convention: `HTB{password}`\n\n### Interesting Observations\n1. The password "Itz_0nLy_UD2" is a play on words - "It\'s only UD2", referring to the anti-debugging technique used\n2. The program doesn\'t actually make decompilation significantly harder - the symbols are not stripped and the logic is straightforward\n3. The `ud2` instructions serve more as a learning exercise about signal handling than a serious protection mechanism\n\n## Solution\nRunning the program with the correct password yields the flag:\n```\n./behindthescenes "Itz_0nLy_UD2"\n> HTB{Itz_0nLy_UD2}\n```\n\n## Flag\n**HTB{Itz_0nLy_UD2}**', report_name='behindthescenes_analysis')

[18]============================Tool Output (Exploiter)=============================
Report successfully created: vulnerability_report_behindthescenes_behindthescenes_analysis_20250726_143544.md

<report_path>
/home/julian/Desktop/Bachelorarbeit/ivexes/output/reports/vulnerability_report_behindthescenes_behindthescenes_analysis_20250726_143544.md
</report_path>

[19]===============================Agent (Exploiter)================================


[19]=============================Tool Call (Exploiter)==============================
teardown_sandbox()

[19]============================Tool Output (Exploiter)=============================
Failed to teardown sandbox

[20]===============================Agent (Exploiter)================================
## Summary

I successfully reverse engineered the "behindthescenes" binary from HackTheBox. The program uses an anti-debugging technique with `ud2` (undefined instruction) opcodes and a SIGILL signal handler to make analysis more challenging. 

The key findings:
- The program validates a 12-character password in four 3-character segments
- The password is "Itz_0nLy_UD2" (a clever reference to the UD2 instruction used)
- The flag is: **HTB{Itz_0nLy_UD2}**

The analysis report has been saved with detailed technical information about the binary's behavior and the reverse engineering process.


Token usage: 0 input + 0 output = 0 total tokens (0 requests)

