+==================================================================================+
|                         o-O-o o   o o--o     o--o  o-o                           |
|                           |   |   | |        |    |                              |
|                           |   o   o O-o  \ / O-o   o-o                           |
|                           |    \ /  |     o  |        |                          |
|                         o-O-o   o   o--o / \ o--o o--o                           |
|                                                                                  |
|                       Intelligent Vulnerability Extraction                       |
|                               & Exploit Synthesis                                |
|                                                                                  |
|                        trace name.........behindthescenes                        |
|                        model................openai/gpt-4o                        |
|                        reasoning model......openai/gpt-4o                        |
|                        temperature....................0.0                        |
|                        max turns.......................25                        |
+==================================================================================+
[1]=============================Tool Call (Exploiter)==============================
setup_sandbox()

[1]============================Tool Output (Exploiter)=============================
Sandbox setup successfully
Username: "user" Password: "passwd"
Rootuser: "root Password: "passwd" (Only use for setup purposes)
user
/home/user
total 80
drwx------ 1 user user  4096 Jul 26 12:26 .
drwxr-xr-x 1 root root  4096 Jul  9 13:51 ..
-rw-r--r-- 1 user user   220 Jun 22 17:05 .bash_logout
-rw-r--r-- 1 user user  5551 Jul  6 04:02 .bashrc
-rw-r--r-- 1 user user  3526 Jun 22 17:05 .bashrc.original
drwxr-xr-x 3 user user  4096 Jul  6 04:02 .config
drwxr-xr-x 3 user user  4096 Jul  6 04:02 .java
drwxr-xr-x 3 user user  4096 Jul  6 04:02 .local
-rw-r--r-- 1 user user   807 Jun 22 17:05 .profile
-rw-r--r-- 1 user user   336 Jun 24 08:51 .zprofile
-rw-r--r-- 1 user user 10856 Jun 24 08:51 .zshrc
-rwxr-xr-x 1 user user 17064 Mar  8  2022 behindthescenes


[2]===============================Agent (Exploiter)================================
To reverse engineer the "behindthescenes" program, we will follow these steps:

1. **Initial Analysis**: Check the file type and basic properties of the binary.
2. **Dynamic Analysis**: Run the program to observe its behavior.
3. **Static Analysis**: Use tools like `strings`, `radare2`, or `ghidra` to analyze the binary and understand its functionality.
4. **Identify the Flag**: Look for any hardcoded strings or logic that might reveal the flag.

Let's start with the initial analysis.

[2]=============================Tool Call (Exploiter)==============================
sandbox_run(input='file behindthescenes', user='user', session=None, timeout=60)

[2]============================Tool Output (Exploiter)=============================
behindthescenes: ELF 64-bit LSB pie executable, x86-64, version 1 (SYSV), dynamically linked, interpreter /lib64/ld-linux-x86-64.so.2, BuildID[sha1]=e60ae4c886619b869178148afd12d0a5428bfe18, for GNU/Linux 3.2.0, not stripped


[3]===============================Agent (Exploiter)================================
The "behindthescenes" binary is a 64-bit ELF executable for the x86-64 architecture. It is dynamically linked and not stripped, which means it may contain useful symbols for analysis.

Next, let's perform a dynamic analysis by running the program to observe its behavior.

[3]=============================Tool Call (Exploiter)==============================
sandbox_run(input='./behindthescenes', user='user', session=None, timeout=60)

[3]============================Tool Output (Exploiter)=============================
./challenge <password>


[4]===============================Agent (Exploiter)================================
The program prompts for a password. This suggests that the program might be checking for a specific input to reveal the flag or perform some action.

Next, let's perform static analysis using `strings` to look for any interesting strings in the binary that might give us clues about the password or the flag.

[4]=============================Tool Call (Exploiter)==============================
sandbox_run(input='strings behindthescenes | head -n 20', user='user', session=None, timeout=60)

[4]============================Tool Output (Exploiter)=============================
/lib64/ld-linux-x86-64.so.2
libc.so.6
strncmp
puts
__stack_chk_fail
printf
strlen
sigemptyset
memset
sigaction
__cxa_finalize
__libc_start_main
GLIBC_2.4
GLIBC_2.2.5
_ITM_deregisterTMCloneTable
__gmon_start__
_ITM_registerTMCloneTable
u+UH
[]A\A]A^A_
./challenge <password>


[5]===============================Agent (Exploiter)================================
The `strings` output shows some standard library functions and the prompt message `./challenge <password>`. There are no obvious strings that look like a flag or password.

Next, let's use `radare2` to perform a more in-depth static analysis and look for functions or logic related to password checking.

[5]=============================Tool Call (Exploiter)==============================
sandbox_run(input='r2 -A behindthescenes', user='user', session=None, timeout=60)

[5]============================Tool Output (Exploiter)=============================
WARN: Relocs has not been applied. Please use `-e bin.relocs.apply=true` or `-e bin.cache=true` next time
INFO: Analyze all flags starting with sym. and entry0 (aa)
INFO: Analyze imports (af@@@i)
INFO: Analyze entrypoint (af@ entry0)
INFO: Analyze symbols (af@@@s)
INFO: Analyze all functions arguments/locals (afva@@@F)
INFO: Analyze function calls (aac)
INFO: Analyze len bytes of instructions for references (aar)
INFO: Finding and parsing C++ vtables (avrr)
INFO: Analyzing methods (af @@ method.*)
INFO: Recovering local variables (afva@@@F)
INFO: Type matching analysis for all functions (aaft)
INFO: Propagate noreturn information (aanr)
INFO: Use -AA or aaaa to perform additional experimental analysis
[?1000;1006;1015l[2K[0m[0m[33m[0x00001140]> [0m[0m[33m[0x00001140]> [0m[0m

[6]===============================Agent (Exploiter)================================
We have successfully loaded the binary into `radare2`. Now, let's list the functions to identify any that might be related to password checking or flag retrieval.

[6]=============================Tool Call (Exploiter)==============================
sandbox_run(input='afl', user='user', session=None, timeout=60)

[6]============================Tool Output (Exploiter)=============================
sh: 1: afl: not found


[7]===============================Agent (Exploiter)================================
It seems there was an issue with the command. Let's try listing the functions again using the correct command in `radare2`.

[7]=============================Tool Call (Exploiter)==============================
sandbox_run(input='afl', user='user', session=None, timeout=60)

[7]============================Tool Output (Exploiter)=============================
sh: 1: afl: not found


[8]=============================Tool Call (Exploiter)==============================
sandbox_run(input='afl', user='user', session=None, timeout=60)

[8]============================Tool Output (Exploiter)=============================
sh: 1: afl: not found


[9]=============================Tool Call (Exploiter)==============================
sandbox_run(input='afl', user='user', session=None, timeout=60)

[9]============================Tool Output (Exploiter)=============================
sh: 1: afl: not found


[10]=============================Tool Call (Exploiter)==============================
sandbox_run(input='afl', user='user', session=None, timeout=60)

[10]============================Tool Output (Exploiter)=============================
sh: 1: afl: not found


[11]===============================Agent (Exploiter)================================
It seems there is a persistent issue with executing the `afl` command in `radare2`. Let's try using another tool, such as `ghidra`, for decompilation and analysis.

[11]=============================Tool Call (Exploiter)==============================
sandbox_run(input='ghidra', user='user', session=None, timeout=60)

[11]============================Tool Output (Exploiter)=============================
sh: 1: ghidra: not found


[12]===============================Agent (Exploiter)================================
It seems that `ghidra` is not available in the current environment. Let's try using `objdump` to disassemble the binary and look for any interesting functions or strings.

[12]=============================Tool Call (Exploiter)==============================
sandbox_run(input='objdump -d behindthescenes | head -n 50', user='user', session=None, timeout=60)

[12]============================Tool Output (Exploiter)=============================

behindthescenes:     file format elf64-x86-64


Disassembly of section .init:

0000000000001000 <_init>:
    1000:	f3 0f 1e fa          	endbr64
    1004:	48 83 ec 08          	sub    $0x8,%rsp
    1008:	48 8b 05 d9 2f 00 00 	mov    0x2fd9(%rip),%rax        # 3fe8 <__gmon_start__>
    100f:	48 85 c0             	test   %rax,%rax
    1012:	74 02                	je     1016 <_init+0x16>
    1014:	ff d0                	call   *%rax
    1016:	48 83 c4 08          	add    $0x8,%rsp
    101a:	c3                   	ret

Disassembly of section .plt:

0000000000001020 <.plt>:
    1020:	ff 35 62 2f 00 00    	push   0x2f62(%rip)        # 3f88 <_GLOBAL_OFFSET_TABLE_+0x8>
    1026:	f2 ff 25 63 2f 00 00 	bnd jmp *0x2f63(%rip)        # 3f90 <_GLOBAL_OFFSET_TABLE_+0x10>
    102d:	0f 1f 00             	nopl   (%rax)
    1030:	f3 0f 1e fa          	endbr64
    1034:	68 00 00 00 00       	push   $0x0
    1039:	f2 e9 e1 ff ff ff    	bnd jmp 1020 <.plt>
    103f:	90                   	nop
    1040:	f3 0f 1e fa          	endbr64
    1044:	68 01 00 00 00       	push   $0x1
    1049:	f2 e9 d1 ff ff ff    	bnd jmp 1020 <.plt>
    104f:	90                   	nop
    1050:	f3 0f 1e fa          	endbr64
    1054:	68 02 00 00 00       	push   $0x2
    1059:	f2 e9 c1 ff ff ff    	bnd jmp 1020 <.plt>
    105f:	90                   	nop
    1060:	f3 0f 1e fa          	endbr64
    1064:	68 03 00 00 00       	push   $0x3
    1069:	f2 e9 b1 ff ff ff    	bnd jmp 1020 <.plt>
    106f:	90                   	nop
    1070:	f3 0f 1e fa          	endbr64
    1074:	68 04 00 00 00       	push   $0x4
    1079:	f2 e9 a1 ff ff ff    	bnd jmp 1020 <.plt>
    107f:	90                   	nop
    1080:	f3 0f 1e fa          	endbr64
    1084:	68 05 00 00 00       	push   $0x5
    1089:	f2 e9 91 ff ff ff    	bnd jmp 1020 <.plt>
    108f:	90                   	nop
    1090:	f3 0f 1e fa          	endbr64
    1094:	68 06 00 00 00       	push   $0x6
    1099:	f2 e9 81 ff ff ff    	bnd jmp 1020 <.plt>
    109f:	90                   	nop


[13]===============================Agent (Exploiter)================================
The `objdump` output shows the disassembly of the `.init` and `.plt` sections, but we need to look at the main function or any other function that might handle the password input.

Let's continue disassembling to find the main function.

[13]=============================Tool Call (Exploiter)==============================
sandbox_run(input='objdump -d behindthescenes | grep -A 20 "<main>"', user='user', session=None, timeout=60)

[13]============================Tool Output (Exploiter)=============================
    1161:	48 8d 3d f9 00 00 00 	lea    0xf9(%rip),%rdi        # 1261 <main>
    1168:	ff 15 72 2e 00 00    	call   *0x2e72(%rip)        # 3fe0 <__libc_start_main@GLIBC_2.2.5>
    116e:	f4                   	hlt
    116f:	90                   	nop

0000000000001170 <deregister_tm_clones>:
    1170:	48 8d 3d 99 2e 00 00 	lea    0x2e99(%rip),%rdi        # 4010 <__TMC_END__>
    1177:	48 8d 05 92 2e 00 00 	lea    0x2e92(%rip),%rax        # 4010 <__TMC_END__>
    117e:	48 39 f8             	cmp    %rdi,%rax
    1181:	74 15                	je     1198 <deregister_tm_clones+0x28>
    1183:	48 8b 05 4e 2e 00 00 	mov    0x2e4e(%rip),%rax        # 3fd8 <_ITM_deregisterTMCloneTable>
    118a:	48 85 c0             	test   %rax,%rax
    118d:	74 09                	je     1198 <deregister_tm_clones+0x28>
    118f:	ff e0                	jmp    *%rax
    1191:	0f 1f 80 00 00 00 00 	nopl   0x0(%rax)
    1198:	c3                   	ret
    1199:	0f 1f 80 00 00 00 00 	nopl   0x0(%rax)

00000000000011a0 <register_tm_clones>:
    11a0:	48 8d 3d 69 2e 00 00 	lea    0x2e69(%rip),%rdi        # 4010 <__TMC_END__>
    11a7:	48 8d 35 62 2e 00 00 	lea    0x2e62(%rip),%rsi        # 4010 <__TMC_END__>
--
0000000000001261 <main>:
    1261:	f3 0f 1e fa          	endbr64
    1265:	55                   	push   %rbp
    1266:	48 89 e5             	mov    %rsp,%rbp
    1269:	48 81 ec b0 00 00 00 	sub    $0xb0,%rsp
    1270:	89 bd 5c ff ff ff    	mov    %edi,-0xa4(%rbp)
    1276:	48 89 b5 50 ff ff ff 	mov    %rsi,-0xb0(%rbp)
    127d:	64 48 8b 04 25 28 00 	mov    %fs:0x28,%rax
    1284:	00 00 
    1286:	48 89 45 f8          	mov    %rax,-0x8(%rbp)
    128a:	31 c0                	xor    %eax,%eax
    128c:	48 8d 85 60 ff ff ff 	lea    -0xa0(%rbp),%rax
    1293:	ba 98 00 00 00       	mov    $0x98,%edx
    1298:	be 00 00 00 00       	mov    $0x0,%esi
    129d:	48 89 c7             	mov    %rax,%rdi
    12a0:	e8 7b fe ff ff       	call   1120 <memset@plt>
    12a5:	48 8d 85 60 ff ff ff 	lea    -0xa0(%rbp),%rax
    12ac:	48 83 c0 08          	add    $0x8,%rax
    12b0:	48 89 c7             	mov    %rax,%rdi
    12b3:	e8 78 fe ff ff       	call   1130 <sigemptyset@plt>
    12b8:	48 8d 05 6a ff ff ff 	lea    -0x96(%rip),%rax        # 1229 <segill_sigaction>


[14]===============================Agent (Exploiter)================================
We have found the `main` function in the disassembly. Let's analyze the instructions to understand the logic, especially around password checking and flag retrieval. 

The `main` function starts at address `0x1261`. It sets up the stack and calls functions like `memset` and `sigemptyset`. We need to look further to identify any password comparison logic. Let's continue disassembling from this point.

[14]=============================Tool Call (Exploiter)==============================
sandbox_run(input='objdump -d behindthescenes | grep -A 50 "<main>"', user='user', session=None, timeout=60)

[14]============================Tool Output (Exploiter)=============================
    1161:	48 8d 3d f9 00 00 00 	lea    0xf9(%rip),%rdi        # 1261 <main>
    1168:	ff 15 72 2e 00 00    	call   *0x2e72(%rip)        # 3fe0 <__libc_start_main@GLIBC_2.2.5>
    116e:	f4                   	hlt
    116f:	90                   	nop

0000000000001170 <deregister_tm_clones>:
    1170:	48 8d 3d 99 2e 00 00 	lea    0x2e99(%rip),%rdi        # 4010 <__TMC_END__>
    1177:	48 8d 05 92 2e 00 00 	lea    0x2e92(%rip),%rax        # 4010 <__TMC_END__>
    117e:	48 39 f8             	cmp    %rdi,%rax
    1181:	74 15                	je     1198 <deregister_tm_clones+0x28>
    1183:	48 8b 05 4e 2e 00 00 	mov    0x2e4e(%rip),%rax        # 3fd8 <_ITM_deregisterTMCloneTable>
    118a:	48 85 c0             	test   %rax,%rax
    118d:	74 09                	je     1198 <deregister_tm_clones+0x28>
    118f:	ff e0                	jmp    *%rax
    1191:	0f 1f 80 00 00 00 00 	nopl   0x0(%rax)
    1198:	c3                   	ret
    1199:	0f 1f 80 00 00 00 00 	nopl   0x0(%rax)

00000000000011a0 <register_tm_clones>:
    11a0:	48 8d 3d 69 2e 00 00 	lea    0x2e69(%rip),%rdi        # 4010 <__TMC_END__>
    11a7:	48 8d 35 62 2e 00 00 	lea    0x2e62(%rip),%rsi        # 4010 <__TMC_END__>
    11ae:	48 29 fe             	sub    %rdi,%rsi
    11b1:	48 89 f0             	mov    %rsi,%rax
    11b4:	48 c1 ee 3f          	shr    $0x3f,%rsi
    11b8:	48 c1 f8 03          	sar    $0x3,%rax
    11bc:	48 01 c6             	add    %rax,%rsi
    11bf:	48 d1 fe             	sar    $1,%rsi
    11c2:	74 14                	je     11d8 <register_tm_clones+0x38>
    11c4:	48 8b 05 25 2e 00 00 	mov    0x2e25(%rip),%rax        # 3ff0 <_ITM_registerTMCloneTable>
    11cb:	48 85 c0             	test   %rax,%rax
    11ce:	74 08                	je     11d8 <register_tm_clones+0x38>
    11d0:	ff e0                	jmp    *%rax
    11d2:	66 0f 1f 44 00 00    	nopw   0x0(%rax,%rax,1)
    11d8:	c3                   	ret
    11d9:	0f 1f 80 00 00 00 00 	nopl   0x0(%rax)

00000000000011e0 <__do_global_dtors_aux>:
    11e0:	f3 0f 1e fa          	endbr64
    11e4:	80 3d 25 2e 00 00 00 	cmpb   $0x0,0x2e25(%rip)        # 4010 <__TMC_END__>
    11eb:	75 2b                	jne    1218 <__do_global_dtors_aux+0x38>
    11ed:	55                   	push   %rbp
    11ee:	48 83 3d 02 2e 00 00 	cmpq   $0x0,0x2e02(%rip)        # 3ff8 <__cxa_finalize@GLIBC_2.2.5>
    11f5:	00 
    11f6:	48 89 e5             	mov    %rsp,%rbp
    11f9:	74 0c                	je     1207 <__do_global_dtors_aux+0x27>
    11fb:	48 8b 3d 06 2e 00 00 	mov    0x2e06(%rip),%rdi        # 4008 <__dso_handle>
    1202:	e8 a9 fe ff ff       	call   10b0 <__cxa_finalize@plt>
    1207:	e8 64 ff ff ff       	call   1170 <deregister_tm_clones>
    120c:	c6 05 fd 2d 00 00 01 	movb   $0x1,0x2dfd(%rip)        # 4010 <__TMC_END__>
    1213:	5d                   	pop    %rbp
    1214:	c3                   	ret
--
0000000000001261 <main>:
    1261:	f3 0f 1e fa          	endbr64
    1265:	55                   	push   %rbp
    1266:	48 89 e5             	mov    %rsp,%rbp
    1269:	48 81 ec b0 00 00 00 	sub    $0xb0,%rsp
    1270:	89 bd 5c ff ff ff    	mov    %edi,-0xa4(%rbp)
    1276:	48 89 b5 50 ff ff ff 	mov    %rsi,-0xb0(%rbp)
    127d:	64 48 8b 04 25 28 00 	mov    %fs:0x28,%rax
    1284:	00 00 
    1286:	48 89 45 f8          	mov    %rax,-0x8(%rbp)
    128a:	31 c0                	xor    %eax,%eax
    128c:	48 8d 85 60 ff ff ff 	lea    -0xa0(%rbp),%rax
    1293:	ba 98 00 00 00       	mov    $0x98,%edx
    1298:	be 00 00 00 00       	mov    $0x0,%esi
    129d:	48 89 c7             	mov    %rax,%rdi
    12a0:	e8 7b fe ff ff       	call   1120 <memset@plt>
    12a5:	48 8d 85 60 ff ff ff 	lea    -0xa0(%rbp),%rax
    12ac:	48 83 c0 08          	add    $0x8,%rax
    12b0:	48 89 c7             	mov    %rax,%rdi
    12b3:	e8 78 fe ff ff       	call   1130 <sigemptyset@plt>
    12b8:	48 8d 05 6a ff ff ff 	lea    -0x96(%rip),%rax        # 1229 <segill_sigaction>
    12bf:	48 89 85 60 ff ff ff 	mov    %rax,-0xa0(%rbp)
    12c6:	c7 45 e8 04 00 00 00 	movl   $0x4,-0x18(%rbp)
    12cd:	48 8d 85 60 ff ff ff 	lea    -0xa0(%rbp),%rax
    12d4:	ba 00 00 00 00       	mov    $0x0,%edx
    12d9:	48 89 c6             	mov    %rax,%rsi
    12dc:	bf 04 00 00 00       	mov    $0x4,%edi
    12e1:	e8 fa fd ff ff       	call   10e0 <sigaction@plt>
    12e6:	0f 0b                	ud2
    12e8:	83 bd 5c ff ff ff 02 	cmpl   $0x2,-0xa4(%rbp)
    12ef:	74 1a                	je     130b <main+0xaa>
    12f1:	0f 0b                	ud2
    12f3:	48 8d 3d 0a 0d 00 00 	lea    0xd0a(%rip),%rdi        # 2004 <_IO_stdin_used+0x4>
    12fa:	e8 d1 fd ff ff       	call   10d0 <puts@plt>
    12ff:	0f 0b                	ud2
    1301:	b8 01 00 00 00       	mov    $0x1,%eax
    1306:	e9 2e 01 00 00       	jmp    1439 <main+0x1d8>
    130b:	0f 0b                	ud2
    130d:	48 8b 85 50 ff ff ff 	mov    -0xb0(%rbp),%rax
    1314:	48 83 c0 08          	add    $0x8,%rax
    1318:	48 8b 00             	mov    (%rax),%rax
    131b:	48 89 c7             	mov    %rax,%rdi
    131e:	e8 cd fd ff ff       	call   10f0 <strlen@plt>
    1323:	48 83 f8 0c          	cmp    $0xc,%rax
    1327:	0f 85 05 01 00 00    	jne    1432 <main+0x1d1>
    132d:	0f 0b                	ud2
    132f:	48 8b 85 50 ff ff ff 	mov    -0xb0(%rbp),%rax
    1336:	48 83 c0 08          	add    $0x8,%rax
    133a:	48 8b 00             	mov    (%rax),%rax
    133d:	ba 03 00 00 00       	mov    $0x3,%edx
    1342:	48 8d 35 d2 0c 00 00 	lea    0xcd2(%rip),%rsi        # 201b <_IO_stdin_used+0x1b>


[15]===============================Agent (Exploiter)================================
The disassembly of the `main` function shows several operations, including calls to `memset`, `sigemptyset`, and `sigaction`. It also includes a comparison of a value with `0x2` and a check for a string length of `0xc` (12 in decimal).

The logic seems to involve checking the length of the input password and possibly comparing it to a specific value. Let's continue analyzing the instructions to see if we can identify the password or the flag.

[15]=============================Tool Call (Exploiter)==============================
sandbox_run(input='objdump -d behindthescenes | grep -A 100 "<main>"', user='user', session=None, timeout=60)

[15]============================Tool Output (Exploiter)=============================
    1161:	48 8d 3d f9 00 00 00 	lea    0xf9(%rip),%rdi        # 1261 <main>
    1168:	ff 15 72 2e 00 00    	call   *0x2e72(%rip)        # 3fe0 <__libc_start_main@GLIBC_2.2.5>
    116e:	f4                   	hlt
    116f:	90                   	nop

0000000000001170 <deregister_tm_clones>:
    1170:	48 8d 3d 99 2e 00 00 	lea    0x2e99(%rip),%rdi        # 4010 <__TMC_END__>
    1177:	48 8d 05 92 2e 00 00 	lea    0x2e92(%rip),%rax        # 4010 <__TMC_END__>
    117e:	48 39 f8             	cmp    %rdi,%rax
    1181:	74 15                	je     1198 <deregister_tm_clones+0x28>
    1183:	48 8b 05 4e 2e 00 00 	mov    0x2e4e(%rip),%rax        # 3fd8 <_ITM_deregisterTMCloneTable>
    118a:	48 85 c0             	test   %rax,%rax
    118d:	74 09                	je     1198 <deregister_tm_clones+0x28>
    118f:	ff e0                	jmp    *%rax
    1191:	0f 1f 80 00 00 00 00 	nopl   0x0(%rax)
    1198:	c3                   	ret
    1199:	0f 1f 80 00 00 00 00 	nopl   0x0(%rax)

00000000000011a0 <register_tm_clones>:
    11a0:	48 8d 3d 69 2e 00 00 	lea    0x2e69(%rip),%rdi        # 4010 <__TMC_END__>
    11a7:	48 8d 35 62 2e 00 00 	lea    0x2e62(%rip),%rsi        # 4010 <__TMC_END__>
    11ae:	48 29 fe             	sub    %rdi,%rsi
    11b1:	48 89 f0             	mov    %rsi,%rax
    11b4:	48 c1 ee 3f          	shr    $0x3f,%rsi
    11b8:	48 c1 f8 03          	sar    $0x3,%rax
    11bc:	48 01 c6             	add    %rax,%rsi
    11bf:	48 d1 fe             	sar    $1,%rsi
    11c2:	74 14                	je     11d8 <register_tm_clones+0x38>
    11c4:	48 8b 05 25 2e 00 00 	mov    0x2e25(%rip),%rax        # 3ff0 <_ITM_registerTMCloneTable>
    11cb:	48 85 c0             	test   %rax,%rax
    11ce:	74 08                	je     11d8 <register_tm_clones+0x38>
    11d0:	ff e0                	jmp    *%rax
    11d2:	66 0f 1f 44 00 00    	nopw   0x0(%rax,%rax,1)
    11d8:	c3                   	ret
    11d9:	0f 1f 80 00 00 00 00 	nopl   0x0(%rax)

00000000000011e0 <__do_global_dtors_aux>:
    11e0:	f3 0f 1e fa          	endbr64
    11e4:	80 3d 25 2e 00 00 00 	cmpb   $0x0,0x2e25(%rip)        # 4010 <__TMC_END__>
    11eb:	75 2b                	jne    1218 <__do_global_dtors_aux+0x38>
    11ed:	55                   	push   %rbp
    11ee:	48 83 3d 02 2e 00 00 	cmpq   $0x0,0x2e02(%rip)        # 3ff8 <__cxa_finalize@GLIBC_2.2.5>
    11f5:	00 
    11f6:	48 89 e5             	mov    %rsp,%rbp
    11f9:	74 0c                	je     1207 <__do_global_dtors_aux+0x27>
    11fb:	48 8b 3d 06 2e 00 00 	mov    0x2e06(%rip),%rdi        # 4008 <__dso_handle>
    1202:	e8 a9 fe ff ff       	call   10b0 <__cxa_finalize@plt>
    1207:	e8 64 ff ff ff       	call   1170 <deregister_tm_clones>
    120c:	c6 05 fd 2d 00 00 01 	movb   $0x1,0x2dfd(%rip)        # 4010 <__TMC_END__>
    1213:	5d                   	pop    %rbp
    1214:	c3                   	ret
    1215:	0f 1f 00             	nopl   (%rax)
    1218:	c3                   	ret
    1219:	0f 1f 80 00 00 00 00 	nopl   0x0(%rax)

0000000000001220 <frame_dummy>:
    1220:	f3 0f 1e fa          	endbr64
    1224:	e9 77 ff ff ff       	jmp    11a0 <register_tm_clones>

0000000000001229 <segill_sigaction>:
    1229:	f3 0f 1e fa          	endbr64
    122d:	55                   	push   %rbp
    122e:	48 89 e5             	mov    %rsp,%rbp
    1231:	89 7d ec             	mov    %edi,-0x14(%rbp)
    1234:	48 89 75 e0          	mov    %rsi,-0x20(%rbp)
    1238:	48 89 55 d8          	mov    %rdx,-0x28(%rbp)
    123c:	48 8b 45 d8          	mov    -0x28(%rbp),%rax
    1240:	48 89 45 f8          	mov    %rax,-0x8(%rbp)
    1244:	48 8b 45 f8          	mov    -0x8(%rbp),%rax
    1248:	48 8b 80 a8 00 00 00 	mov    0xa8(%rax),%rax
    124f:	48 8d 50 02          	lea    0x2(%rax),%rdx
    1253:	48 8b 45 f8          	mov    -0x8(%rbp),%rax
    1257:	48 89 90 a8 00 00 00 	mov    %rdx,0xa8(%rax)
    125e:	90                   	nop
    125f:	5d                   	pop    %rbp
    1260:	c3                   	ret

0000000000001261 <main>:
    1261:	f3 0f 1e fa          	endbr64
    1265:	55                   	push   %rbp
    1266:	48 89 e5             	mov    %rsp,%rbp
    1269:	48 81 ec b0 00 00 00 	sub    $0xb0,%rsp
    1270:	89 bd 5c ff ff ff    	mov    %edi,-0xa4(%rbp)
    1276:	48 89 b5 50 ff ff ff 	mov    %rsi,-0xb0(%rbp)
    127d:	64 48 8b 04 25 28 00 	mov    %fs:0x28,%rax
    1284:	00 00 
    1286:	48 89 45 f8          	mov    %rax,-0x8(%rbp)
    128a:	31 c0                	xor    %eax,%eax
    128c:	48 8d 85 60 ff ff ff 	lea    -0xa0(%rbp),%rax
    1293:	ba 98 00 00 00       	mov    $0x98,%edx
    1298:	be 00 00 00 00       	mov    $0x0,%esi
    129d:	48 89 c7             	mov    %rax,%rdi
    12a0:	e8 7b fe ff ff       	call   1120 <memset@plt>
    12a5:	48 8d 85 60 ff ff ff 	lea    -0xa0(%rbp),%rax
    12ac:	48 83 c0 08          	add    $0x8,%rax
    12b0:	48 89 c7             	mov    %rax,%rdi
    12b3:	e8 78 fe ff ff       	call   1130 <sigemptyset@plt>
    12b8:	48 8d 05 6a ff ff ff 	lea    -0x96(%rip),%rax        # 1229 <segill_sigaction>
    12bf:	48 89 85 60 ff ff ff 	mov    %rax,-0xa0(%rbp)
    12c6:	c7 45 e8 04 00 00 00 	movl   $0x4,-0x18(%rbp)
    12cd:	48 8d 85 60 ff ff ff 	lea    -0xa0(%rbp),%rax
    12d4:	ba 00 00 00 00       	mov    $0x0,%edx
    12d9:	48 89 c6             	mov    %rax,%rsi
    12dc:	bf 04 00 00 00       	mov    $0x4,%edi
    12e1:	e8 fa fd ff ff       	call   10e0 <sigaction@plt>
    12e6:	0f 0b                	ud2
    12e8:	83 bd 5c ff ff ff 02 	cmpl   $0x2,-0xa4(%rbp)
    12ef:	74 1a                	je     130b <main+0xaa>
    12f1:	0f 0b                	ud2
    12f3:	48 8d 3d 0a 0d 00 00 	lea    0xd0a(%rip),%rdi        # 2004 <_IO_stdin_used+0x4>
    12fa:	e8 d1 fd ff ff       	call   10d0 <puts@plt>
    12ff:	0f 0b                	ud2
    1301:	b8 01 00 00 00       	mov    $0x1,%eax
    1306:	e9 2e 01 00 00       	jmp    1439 <main+0x1d8>
    130b:	0f 0b                	ud2
    130d:	48 8b 85 50 ff ff ff 	mov    -0xb0(%rbp),%rax
    1314:	48 83 c0 08          	add    $0x8,%rax
    1318:	48 8b 00             	mov    (%rax),%rax
    131b:	48 89 c7             	mov    %rax,%rdi
    131e:	e8 cd fd ff ff       	call   10f0 <strlen@plt>
    1323:	48 83 f8 0c          	cmp    $0xc,%rax
    1327:	0f 85 05 01 00 00    	jne    1432 <main+0x1d1>
    132d:	0f 0b                	ud2
    132f:	48 8b 85 50 ff ff ff 	mov    -0xb0(%rbp),%rax
    1336:	48 83 c0 08          	add    $0x8,%rax
    133a:	48 8b 00             	mov    (%rax),%rax
    133d:	ba 03 00 00 00       	mov    $0x3,%edx
    1342:	48 8d 35 d2 0c 00 00 	lea    0xcd2(%rip),%rsi        # 201b <_IO_stdin_used+0x1b>
    1349:	48 89 c7             	mov    %rax,%rdi
    134c:	e8 6f fd ff ff       	call   10c0 <strncmp@plt>
    1351:	85 c0                	test   %eax,%eax
    1353:	0f 85 d0 00 00 00    	jne    1429 <main+0x1c8>
    1359:	0f 0b                	ud2
    135b:	48 8b 85 50 ff ff ff 	mov    -0xb0(%rbp),%rax
    1362:	48 83 c0 08          	add    $0x8,%rax
    1366:	48 8b 00             	mov    (%rax),%rax
    1369:	48 83 c0 03          	add    $0x3,%rax
    136d:	ba 03 00 00 00       	mov    $0x3,%edx
    1372:	48 8d 35 a6 0c 00 00 	lea    0xca6(%rip),%rsi        # 201f <_IO_stdin_used+0x1f>
    1379:	48 89 c7             	mov    %rax,%rdi
    137c:	e8 3f fd ff ff       	call   10c0 <strncmp@plt>
    1381:	85 c0                	test   %eax,%eax
    1383:	0f 85 97 00 00 00    	jne    1420 <main+0x1bf>
    1389:	0f 0b                	ud2
    138b:	48 8b 85 50 ff ff ff 	mov    -0xb0(%rbp),%rax
    1392:	48 83 c0 08          	add    $0x8,%rax
    1396:	48 8b 00             	mov    (%rax),%rax
    1399:	48 83 c0 06          	add    $0x6,%rax
    139d:	ba 03 00 00 00       	mov    $0x3,%edx
    13a2:	48 8d 35 7a 0c 00 00 	lea    0xc7a(%rip),%rsi        # 2023 <_IO_stdin_used+0x23>
    13a9:	48 89 c7             	mov    %rax,%rdi
    13ac:	e8 0f fd ff ff       	call   10c0 <strncmp@plt>
    13b1:	85 c0                	test   %eax,%eax
    13b3:	75 62                	jne    1417 <main+0x1b6>
    13b5:	0f 0b                	ud2
    13b7:	48 8b 85 50 ff ff ff 	mov    -0xb0(%rbp),%rax
    13be:	48 83 c0 08          	add    $0x8,%rax
    13c2:	48 8b 00             	mov    (%rax),%rax
    13c5:	48 83 c0 09          	add    $0x9,%rax
    13c9:	ba 03 00 00 00       	mov    $0x3,%edx
    13ce:	48 8d 35 52 0c 00 00 	lea    0xc52(%rip),%rsi        # 2027 <_IO_stdin_used+0x27>
    13d5:	48 89 c7             	mov    %rax,%rdi
    13d8:	e8 e3 fc ff ff       	call   10c0 <strncmp@plt>
    13dd:	85 c0                	test   %eax,%eax
    13df:	75 2d                	jne    140e <main+0x1ad>
    13e1:	0f 0b                	ud2
    13e3:	48 8b 85 50 ff ff ff 	mov    -0xb0(%rbp),%rax
    13ea:	48 83 c0 08          	add    $0x8,%rax
    13ee:	48 8b 00             	mov    (%rax),%rax
    13f1:	48 89 c6             	mov    %rax,%rsi
    13f4:	48 8d 3d 30 0c 00 00 	lea    0xc30(%rip),%rdi        # 202b <_IO_stdin_used+0x2b>
    13fb:	b8 00 00 00 00       	mov    $0x0,%eax
    1400:	e8 0b fd ff ff       	call   1110 <printf@plt>
    1405:	0f 0b                	ud2
    1407:	b8 00 00 00 00       	mov    $0x0,%eax
    140c:	eb 2b                	jmp    1439 <main+0x1d8>
    140e:	0f 0b                	ud2
    1410:	b8 00 00 00 00       	mov    $0x0,%eax


[16]===============================Agent (Exploiter)================================
The disassembly reveals that the program is performing a series of `strncmp` operations, which suggests it is comparing segments of the input password against specific values. These comparisons are likely part of the password validation logic.

The program checks the length of the input to be 12 characters and then performs several `strncmp` operations with different offsets and lengths. This indicates that the password is divided into segments, each of which is compared against a specific value.

Let's extract the values being compared to identify the password or flag.

[16]=============================Tool Call (Exploiter)==============================
sandbox_run(input='objdump -s -j .rodata behindthescenes', user='user', session=None, timeout=60)

[16]============================Tool Output (Exploiter)=============================

behindthescenes:     file format elf64-x86-64

Contents of section .rodata:
 2000 01000200 2e2f6368 616c6c65 6e676520  ...../challenge 
 2010 3c706173 73776f72 643e0049 747a005f  <password>.Itz._
 2020 306e004c 795f0055 4432003e 20485442  0n.Ly_.UD2.> HTB
 2030 7b25737d 0a00                        {%s}..          


[17]===============================Agent (Exploiter)================================
The `.rodata` section contains several strings, including:

- `./challenge <password>`
- `Itz`
- `_0n`
- `Ly_`
- `UD2`
- `> HTB{%s}`

These strings are likely the segments used in the `strncmp` comparisons. The password is likely constructed from these segments. Let's try using these segments as the password to see if it reveals the flag. The password might be `Itz_0nLy_UD2`. Let's test this hypothesis by running the program with this password.

[17]=============================Tool Call (Exploiter)==============================
sandbox_run(input='./behindthescenes Itz_0nLy_UD2', user='user', session=None, timeout=60)

[17]============================Tool Output (Exploiter)=============================
> HTB{Itz_0nLy_UD2}


[18]===============================Agent (Exploiter)================================
The program output reveals the flag: `HTB{Itz_0nLy_UD2}`.

Let's summarize our findings and create a report.

[18]=============================Tool Call (Exploiter)==============================
create_report(content='# Reverse Engineering Report: behindthescenes\n\n## Challenge Description\n\nThe challenge involves reverse engineering a binary named `behindthescenes` to retrieve a flag. The program prompts for a password and outputs a flag if the correct password is provided.\n\n## Analysis Steps\n\n1. **Initial Analysis**: The binary is a 64-bit ELF executable, dynamically linked, and not stripped.\n\n2. **Dynamic Analysis**: Running the program prompts for a password.\n\n3. **Static Analysis**:\n   - Used `strings` to identify potential strings in the binary.\n   - Disassembled the binary using `objdump` to analyze the `main` function.\n   - Identified `strncmp` operations comparing segments of the input password against specific values.\n   - Extracted strings from the `.rodata` section, revealing segments used in password validation.\n\n4. **Password Construction**:\n   - The password is constructed from segments found in the `.rodata` section: `Itz`, `_0n`, `Ly_`, `UD2`.\n   - The complete password is `Itz_0nLy_UD2`.\n\n5. **Flag Retrieval**:\n   - Running the program with the password `Itz_0nLy_UD2` reveals the flag: `HTB{Itz_0nLy_UD2}`.\n\n## Conclusion\n\nThe flag for the challenge is `HTB{Itz_0nLy_UD2}`. The challenge involved understanding the password validation logic through static analysis and constructing the correct password from identified segments.\n', report_name='behindthescenes_analysis')

[18]============================Tool Output (Exploiter)=============================
Report successfully created: vulnerability_report_behindthescenes_behindthescenes_analysis_20250726_142705.md

<report_path>
/home/julian/Desktop/Bachelorarbeit/ivexes/output/reports/vulnerability_report_behindthescenes_behindthescenes_analysis_20250726_142705.md
</report_path>

[19]===============================Agent (Exploiter)================================
The analysis report has been successfully created. The flag for the challenge is `HTB{Itz_0nLy_UD2}`. If you have any further questions or need additional assistance, feel free to ask!


Token usage: 85,515 input + 1,902 output = 87,417 total tokens (19 requests) (cached: 71,296)

