+==================================================================================+
|                         o-O-o o   o o--o     o--o  o-o                           |
|                           |   |   | |        |    |                              |
|                           |   o   o O-o  \ / O-o   o-o                           |
|                           |    \ /  |     o  |        |                          |
|                         o-O-o   o   o--o / \ o--o o--o                           |
|                                                                                  |
|                       Intelligent Vulnerability Extraction                       |
|                               & Exploit Synthesis                                |
|                                                                                  |
|                    trace name.................behindthescenes                    |
|                    model..............gemini/gemini-2.5-flash                    |
|                    reasoning model....gemini/gemini-2.5-flash                    |
|                    temperature............................0.0                    |
|                    max turns...............................25                    |
+==================================================================================+
[1]=============================Tool Call (Exploiter)==============================
setup_sandbox()

[1]============================Tool Output (Exploiter)=============================
Failed to setup sandbox

[2]=============================Tool Call (Exploiter)==============================
setup_sandbox()

[2]============================Tool Output (Exploiter)=============================
Sandbox setup successfully
Username: "user" Password: "passwd"
Rootuser: "root Password: "passwd" (Only use for setup purposes)
user
/home/user
total 80
drwx------ 1 user user  4096 Jul 26 12:32 .
drwxr-xr-x 1 root root  4096 Jul  9 13:51 ..
-rw-r--r-- 1 user user   220 Jun 22 17:05 .bash_logout
-rw-r--r-- 1 user user  5551 Jul  6 04:02 .bashrc
-rw-r--r-- 1 user user  3526 Jun 22 17:05 .bashrc.original
drwxr-xr-x 3 user user  4096 Jul  6 04:02 .config
drwxr-xr-x 3 user user  4096 Jul  6 04:02 .java
drwxr-xr-x 3 user user  4096 Jul  6 04:02 .local
-rw-r--r-- 1 user user   807 Jun 22 17:05 .profile
-rw-r--r-- 1 user user   336 Jun 24 08:51 .zprofile
-rw-r--r-- 1 user user 10856 Jun 24 08:51 .zshrc
-rwxr-xr-x 1 user user 17064 Mar  8  2022 behindthescenes


[3]=============================Tool Call (Exploiter)==============================
sandbox_run(input='file behindthescenes\n', session='behindthescenes_session')

[3]============================Tool Output (Exploiter)=============================
behindthescenes: ELF 64-bit LSB pie executable, x86-64, version 1 (SYSV), dynamically linked, interpreter /lib64/ld-linux-x86-64.so.2, BuildID[sha1]=e60ae4c886619b869178148afd12d0a5428bfe18, for GNU/Linux 3.2.0, not stripped
# 

[4]=============================Tool Call (Exploiter)==============================
sandbox_run(input='strings behindthescenes | head -n 20\n', session='behindthescenes_session')

[4]============================Tool Output (Exploiter)=============================
/lib64/ld-linux-x86-64.so.2
libc.so.6
strncmp
puts
__stack_chk_fail
printf
strlen
sigemptyset
memset
sigaction
__cxa_finalize
__libc_start_main
GLIBC_2.4
GLIBC_2.2.5
_ITM_deregisterTMCloneTable
__gmon_start__
_ITM_registerTMCloneTable
u+UH
[]A\A]A^A_
./challenge <password>
# 

[5]=============================Tool Call (Exploiter)==============================
sandbox_run(input='r2 -A behindthescenes\n', session='behindthescenes_session')

[5]============================Tool Output (Exploiter)=============================
WARN: Relocs has not been applied. Please use `-e bin.relocs.apply=true` or `-e bin.cache=true` next time
INFO: Analyze all flags starting with sym. and entry0 (aa)
INFO: Analyze imports (af@@@i)
INFO: Analyze entrypoint (af@ entry0)
INFO: Analyze symbols (af@@@s)
INFO: Analyze all functions arguments/locals (afva@@@F)
INFO: Analyze function calls (aac)
INFO: Analyze len bytes of instructions for references (aar)
INFO: Finding and parsing C++ vtables (avrr)
INFO: Analyzing methods (af @@ method.*)
INFO: Recovering local variables (afva@@@F)
INFO: Type matching analysis for all functions (aaft)
INFO: Propagate noreturn information (aanr)
INFO: Use -AA or aaaa to perform additional experimental analysis
[2K[0m[0m[33m[0x00001140]> [0m[0m[33m[0x00001140]> [0m[0m[?1000;1006;1015l

[6]=============================Tool Call (Exploiter)==============================
sandbox_run(input='s main\npdf\nq\n', session='behindthescenes_session')

[6]============================Tool Output (Exploiter)=============================
[2K[?1000;1006;1015l[33m[0x00001261]> [0m[0mq[0m
# 

[7]=============================Tool Call (Exploiter)==============================
sandbox_run(input='r2 -A behindthescenes\ns main\npdf\nq\n', timeout=120, session='behindthescenes_session')

[7]============================Tool Output (Exploiter)=============================
[2K[?1000;1006;1015l[33m[0x00001261]> [0m[0mq[0m
# 

[8]=============================Tool Call (Exploiter)==============================
sandbox_run(timeout=120, session='behindthescenes_session', input='r2 -A behindthescenes\naaa\ns main\npdf\nq\n')

[8]============================Tool Output (Exploiter)=============================
[2K[?1000;1006;1015l[33m[0x00001261]> [0m[0mq[0m
# 

[9]=============================Tool Call (Exploiter)==============================
sandbox_run(timeout=120, session='behindthescenes_session', input='objdump -d behindthescenes | grep -A 50 main\n')

[9]============================Tool Output (Exploiter)=============================
    1161:	48 8d 3d f9 00 00 00 	lea    0xf9(%rip),%rdi        # 1261 <main>
    1168:	ff 15 72 2e 00 00    	call   *0x2e72(%rip)        # 3fe0 <__libc_start_main@GLIBC_2.2.5>
    116e:	f4                   	hlt
    116f:	90                   	nop

0000000000001170 <deregister_tm_clones>:
    1170:	48 8d 3d 99 2e 00 00 	lea    0x2e99(%rip),%rdi        # 4010 <__TMC_END__>
    1177:	48 8d 05 92 2e 00 00 	lea    0x2e92(%rip),%rax        # 4010 <__TMC_END__>
    117e:	48 39 f8             	cmp    %rdi,%rax
    1181:	74 15                	je     1198 <deregister_tm_clones+0x28>
    1183:	48 8b 05 4e 2e 00 00 	mov    0x2e4e(%rip),%rax        # 3fd8 <_ITM_deregisterTMCloneTable>
    118a:	48 85 c0             	test   %rax,%rax
    118d:	74 09                	je     1198 <deregister_tm_clones+0x28>
    118f:	ff e0                	jmp    *%rax
    1191:	0f 1f 80 00 00 00 00 	nopl   0x0(%rax)
    1198:	c3                   	ret
    1199:	0f 1f 80 00 00 00 00 	nopl   0x0(%rax)

00000000000011a0 <register_tm_clones>:
    11a0:	48 8d 3d 69 2e 00 00 	lea    0x2e69(%rip),%rdi        # 4010 <__TMC_END__>
    11a7:	48 8d 35 62 2e 00 00 	lea    0x2e62(%rip),%rsi        # 4010 <__TMC_END__>
    11ae:	48 29 fe             	sub    %rdi,%rsi
    11b1:	48 89 f0             	mov    %rsi,%rax
    11b4:	48 c1 ee 3f          	shr    $0x3f,%rsi
    11b8:	48 c1 f8 03          	sar    $0x3,%rax
    11bc:	48 01 c6             	add    %rax,%rsi
    11bf:	48 d1 fe             	sar    $1,%rsi
    11c2:	74 14                	je     11d8 <register_tm_clones+0x38>
    11c4:	48 8b 05 25 2e 00 00 	mov    0x2e25(%rip),%rax        # 3ff0 <_ITM_registerTMCloneTable>
    11cb:	48 85 c0             	test   %rax,%rax
    11ce:	74 08                	je     11d8 <register_tm_clones+0x38>
    11d0:	ff e0                	jmp    *%rax
    11d2:	66 0f 1f 44 00 00    	nopw   0x0(%rax,%rax,1)
    11d8:	c3                   	ret
    11d9:	0f 1f 80 00 00 00 00 	nopl   0x0(%rax)

00000000000011e0 <__do_global_dtors_aux>:
    11e0:	f3 0f 1e fa          	endbr64
    11e4:	80 3d 25 2e 00 00 00 	cmpb   $0x0,0x2e25(%rip)        # 4010 <__TMC_END__>
    11eb:	75 2b                	jne    1218 <__do_global_dtors_aux+0x38>
    11ed:	55                   	push   %rbp
    11ee:	48 83 3d 02 2e 00 00 	cmpq   $0x0,0x2e02(%rip)        # 3ff8 <__cxa_finalize@GLIBC_2.2.5>
    11f5:	00 
    11f6:	48 89 e5             	mov    %rsp,%rbp
    11f9:	74 0c                	je     1207 <__do_global_dtors_aux+0x27>
    11fb:	48 8b 3d 06 2e 00 00 	mov    0x2e06(%rip),%rdi        # 4008 <__dso_handle>
    1202:	e8 a9 fe ff ff       	call   10b0 <__cxa_finalize@plt>
    1207:	e8 64 ff ff ff       	call   1170 <deregister_tm_clones>
    120c:	c6 05 fd 2d 00 00 01 	movb   $0x1,0x2dfd(%rip)        # 4010 <__TMC_END__>
    1213:	5d                   	pop    %rbp
    1214:	c3                   	ret
    1215:	0f 1f 00             	nopl   (%rax)
--
0000000000001261 <main>:
    1261:	f3 0f 1e fa          	endbr64
    1265:	55                   	push   %rbp
    1266:	48 89 e5             	mov    %rsp,%rbp
    1269:	48 81 ec b0 00 00 00 	sub    $0xb0,%rsp
    1270:	89 bd 5c ff ff ff    	mov    %edi,-0xa4(%rbp)
    1276:	48 89 b5 50 ff ff ff 	mov    %rsi,-0xb0(%rbp)
    127d:	64 48 8b 04 25 28 00 	mov    %fs:0x28,%rax
    1284:	00 00 
    1286:	48 89 45 f8          	mov    %rax,-0x8(%rbp)
    128a:	31 c0                	xor    %eax,%eax
    128c:	48 8d 85 60 ff ff ff 	lea    -0xa0(%rbp),%rax
    1293:	ba 98 00 00 00       	mov    $0x98,%edx
    1298:	be 00 00 00 00       	mov    $0x0,%esi
    129d:	48 89 c7             	mov    %rax,%rdi
    12a0:	e8 7b fe ff ff       	call   1120 <memset@plt>
    12a5:	48 8d 85 60 ff ff ff 	lea    -0xa0(%rbp),%rax
    12ac:	48 83 c0 08          	add    $0x8,%rax
    12b0:	48 89 c7             	mov    %rax,%rdi
    12b3:	e8 78 fe ff ff       	call   1130 <sigemptyset@plt>
    12b8:	48 8d 05 6a ff ff ff 	lea    -0x96(%rip),%rax        # 1229 <segill_sigaction>
    12bf:	48 89 85 60 ff ff ff 	mov    %rax,-0xa0(%rbp)
    12c6:	c7 45 e8 04 00 00 00 	movl   $0x4,-0x18(%rbp)
    12cd:	48 8d 85 60 ff ff ff 	lea    -0xa0(%rbp),%rax
    12d4:	ba 00 00 00 00       	mov    $0x0,%edx
    12d9:	48 89 c6             	mov    %rax,%rsi
    12dc:	bf 04 00 00 00       	mov    $0x4,%edi
    12e1:	e8 fa fd ff ff       	call   10e0 <sigaction@plt>
    12e6:	0f 0b                	ud2
    12e8:	83 bd 5c ff ff ff 02 	cmpl   $0x2,-0xa4(%rbp)
    12ef:	74 1a                	je     130b <main+0xaa>
    12f1:	0f 0b                	ud2
    12f3:	48 8d 3d 0a 0d 00 00 	lea    0xd0a(%rip),%rdi        # 2004 <_IO_stdin_used+0x4>
    12fa:	e8 d1 fd ff ff       	call   10d0 <puts@plt>
    12ff:	0f 0b                	ud2
    1301:	b8 01 00 00 00       	mov    $0x1,%eax
    1306:	e9 2e 01 00 00       	jmp    1439 <main+0x1d8>
    130b:	0f 0b                	ud2
    130d:	48 8b 85 50 ff ff ff 	mov    -0xb0(%rbp),%rax
    1314:	48 83 c0 08          	add    $0x8,%rax
    1318:	48 8b 00             	mov    (%rax),%rax
    131b:	48 89 c7             	mov    %rax,%rdi
    131e:	e8 cd fd ff ff       	call   10f0 <strlen@plt>
    1323:	48 83 f8 0c          	cmp    $0xc,%rax
    1327:	0f 85 05 01 00 00    	jne    1432 <main+0x1d1>
    132d:	0f 0b                	ud2
    132f:	48 8b 85 50 ff ff ff 	mov    -0xb0(%rbp),%rax
    1336:	48 83 c0 08          	add    $0x8,%rax
    133a:	48 8b 00             	mov    (%rax),%rax
    133d:	ba 03 00 00 00       	mov    $0x3,%edx
    1342:	48 8d 35 d2 0c 00 00 	lea    0xcd2(%rip),%rsi        # 201b <_IO_stdin_used+0x1b>
    1349:	48 89 c7             	mov    %rax,%rdi
    134c:	e8 6f fd ff ff       	call   10c0 <strncmp@plt>
    1351:	85 c0                	test   %eax,%eax
    1353:	0f 85 d0 00 00 00    	jne    1429 <main+0x1c8>
    1359:	0f 0b                	ud2
    135b:	48 8b 85 50 ff ff ff 	mov    -0xb0(%rbp),%rax
    1362:	48 83 c0 08          	add    $0x8,%rax
    1366:	48 8b 00             	mov    (%rax),%rax
    1369:	48 83 c0 03          	add    $0x3,%rax
    136d:	ba 03 00 00 00       	mov    $0x3,%edx
    1372:	48 8d 35 a6 0c 00 00 	lea    0xca6(%rip),%rsi        # 201f <_IO_stdin_used+0x1f>
    1379:	48 89 c7             	mov    %rax,%rdi
    137c:	e8 3f fd ff ff       	call   10c0 <strncmp@plt>
    1381:	85 c0                	test   %eax,%eax
    1383:	0f 85 97 00 00 00    	jne    1420 <main+0x1bf>
    1389:	0f 0b                	ud2
    138b:	48 8b 85 50 ff ff ff 	mov    -0xb0(%rbp),%rax
    1392:	48 83 c0 08          	add    $0x8,%rax
    1396:	48 8b 00             	mov    (%rax),%rax
    1399:	48 83 c0 06          	add    $0x6,%rax
    139d:	ba 03 00 00 00       	mov    $0x3,%edx
    13a2:	48 8d 35 7a 0c 00 00 	lea    0xc7a(%rip),%rsi        # 2023 <_IO_stdin_used+0x23>
    13a9:	48 89 c7             	mov    %rax,%rdi
    13ac:	e8 0f fd ff ff       	call   10c0 <strncmp@plt>
    13b1:	85 c0                	test   %eax,%eax
    13b3:	75 62                	jne    1417 <main+0x1b6>
    13b5:	0f 0b                	ud2
    13b7:	48 8b 85 50 ff ff ff 	mov    -0xb0(%rbp),%rax
    13be:	48 83 c0 08          	add    $0x8,%rax
    13c2:	48 8b 00             	mov    (%rax),%rax
    13c5:	48 83 c0 09          	add    $0x9,%rax
    13c9:	ba 03 00 00 00       	mov    $0x3,%edx
    13ce:	48 8d 35 52 0c 00 00 	lea    0xc52(%rip),%rsi        # 2027 <_IO_stdin_used+0x27>
    13d5:	48 89 c7             	mov    %rax,%rdi
    13d8:	e8 e3 fc ff ff       	call   10c0 <strncmp@plt>
    13dd:	85 c0                	test   %eax,%eax
    13df:	75 2d                	jne    140e <main+0x1ad>
    13e1:	0f 0b                	ud2
    13e3:	48 8b 85 50 ff ff ff 	mov    -0xb0(%rbp),%rax
    13ea:	48 83 c0 08          	add    $0x8,%rax
    13ee:	48 8b 00             	mov    (%rax),%rax
    13f1:	48 89 c6             	mov    %rax,%rsi
    13f4:	48 8d 3d 30 0c 00 00 	lea    0xc30(%rip),%rdi        # 202b <_IO_stdin_used+0x2b>
    13fb:	b8 00 00 00 00       	mov    $0x0,%eax
    1400:	e8 0b fd ff ff       	call   1110 <printf@plt>
    1405:	0f 0b                	ud2
    1407:	b8 00 00 00 00       	mov    $0x0,%eax
    140c:	eb 2b                	jmp    1439 <main+0x1d8>
    140e:	0f 0b                	ud2
    1410:	b8 00 00 00 00       	mov    $0x0,%eax
    1415:	eb 22                	jmp    1439 <main+0x1d8>
    1417:	0f 0b                	ud2
    1419:	b8 00 00 00 00       	mov    $0x0,%eax
    141e:	eb 19                	jmp    1439 <main+0x1d8>
    1420:	0f 0b                	ud2
    1422:	b8 00 00 00 00       	mov    $0x0,%eax
    1427:	eb 10                	jmp    1439 <main+0x1d8>
    1429:	0f 0b                	ud2
    142b:	b8 00 00 00 00       	mov    $0x0,%eax
    1430:	eb 07                	jmp    1439 <main+0x1d8>
    1432:	0f 0b                	ud2
    1434:	b8 00 00 00 00       	mov    $0x0,%eax
    1439:	48 8b 4d f8          	mov    -0x8(%rbp),%rcx
    143d:	64 48 33 0c 25 28 00 	xor    %fs:0x28,%rcx
    1444:	00 00 
    1446:	74 05                	je     144d <main+0x1ec>
    1448:	e8 b3 fc ff ff       	call   1100 <__stack_chk_fail@plt>
    144d:	c9                   	leave
    144e:	c3                   	ret
    144f:	90                   	nop

0000000000001450 <__libc_csu_init>:
    1450:	f3 0f 1e fa          	endbr64
    1454:	41 57                	push   %r15
    1456:	4c 8d 3d 23 29 00 00 	lea    0x2923(%rip),%r15        # 3d80 <__frame_dummy_init_array_entry>
    145d:	41 56                	push   %r14
    145f:	49 89 d6             	mov    %rdx,%r14
    1462:	41 55                	push   %r13
    1464:	49 89 f5             	mov    %rsi,%r13
    1467:	41 54                	push   %r12
    1469:	41 89 fc             	mov    %edi,%r12d
    146c:	55                   	push   %rbp
    146d:	48 8d 2d 14 29 00 00 	lea    0x2914(%rip),%rbp        # 3d88 <__do_global_dtors_aux_fini_array_entry>
    

[10]=============================Tool Call (Exploiter)==============================
sandbox_run(session='behindthescenes_session', timeout=120, input='r2 -A behindthescenes\nps @0x201b\nps @0x201f\nps @0x2023\nps @0x2027\nq\n')

[10]============================Tool Output (Exploiter)=============================
[2K[?1000;1006;1015l[33m[0x00001140]> [0m[0mq[0m
# 

[11]=============================Tool Call (Exploiter)==============================
sandbox_run(timeout=120, input='r2 -A behindthescenes\nps @0x201b\nps @0x201f\nps @0x2023\nps @0x2027\nq\n', session='behindthescenes_session')

[11]============================Tool Output (Exploiter)=============================
[2K[?1000;1006;1015l[33m[0x00001140]> [0m[0mq[0m
# 

[12]===============================Agent (Exploiter)================================
The program `behindthescenes` is an ELF 64-bit executable, not stripped, and expects a password as a command-line argument. The `main` function performs several `strncmp` operations to validate the input password. The password must be 12 characters long.

The program compares the input password in four 3-character chunks against hardcoded strings. I need to extract these strings from the binary.

Here's the plan:
1. Use `r2` to open the binary.
2. Use the `ps` command to print the string at the identified memory addresses.
3. Concatenate the strings to form the complete password.
4. Run the program with the found password to get the flag.
5. Create a markdown report.

Let's execute the plan.


[12]=============================Tool Call (Exploiter)==============================
sandbox_run(timeout=120, session='behindthescenes_session', input='r2 -A behindthescenes\nps @0x201b\nps @0x201f\nps @0x2023\nps @0x2027\nq\n')

[12]============================Tool Output (Exploiter)=============================
[2K[?1000;1006;1015l[33m[0x00001140]> [0m[0mq[0m
# 

[13]=============================Tool Call (Exploiter)==============================
sandbox_run(input='r2 -A behindthescenes\ns 0x201b\nps\ns 0x201f\nps\ns 0x2023\nps\ns 0x2027\nps\nq\n', timeout=120, session='behindthescenes_session')

[13]============================Tool Output (Exploiter)=============================
[2K[?1000;1006;1015l[33m[0x00002027]> [0m[0mq[0m
# 

[14]===============================Agent (Exploiter)================================
I made a mistake in the previous step. The `ps` command in `r2` needs to be executed after seeking to the address. I will correct this and try again.


[14]=============================Tool Call (Exploiter)==============================
sandbox_run(session='behindthescenes_session', timeout=120, input='r2 -A behindthescenes\ns 0x201b\nps\ns 0x201f\nps\ns 0x2023\nps\ns 0x2027\nps\nq\n')

[14]============================Tool Output (Exploiter)=============================
[2K[?1000;1006;1015l[33m[0x00002027]> [0m[0mq[0m
# 

[15]===============================Agent (Exploiter)================================
It seems like the `ps` command is not giving the expected output. I will try `px` to examine the bytes at the address and then convert them to ASCII.

Let's re-examine the `objdump` output to confirm the addresses and the length of the strings.
From the `objdump` output:
- `1342: lea 0xcd2(%rip),%rsi # 201b <_IO_stdin_used+0x1b>` and `mov $0x3,%edx` (length 3)
- `1372: lea 0xca6(%rip),%rsi # 201f <_IO_stdin_used+0x1f>` and `mov $0x3,%edx` (length 3)
- `13a2: lea 0xc7a(%rip),%rsi # 2023 <_IO_stdin_used+0x23>` and `mov $0x3,%edx` (length 3)
- `13ce: lea 0xc52(%rip),%rsi # 2027 <_IO_stdin_used+0x27>` and `mov $0x3,%edx` (length 3)

The addresses are correct, and each `strncmp` compares 3 bytes.

Let's try `x /s` in `gdb` or `cat` the data section if possible. Or, I can use `r2` to print the string at the address. The `ps` command should work. I will try again, but this time I will use `s` to seek to the address and then `ps` to print the string.


[15]=============================Tool Call (Exploiter)==============================
sandbox_run(timeout=120, session='behindthescenes_session', input='r2 -A behindthescenes\ns 0x201b\nps\ns 0x201f\nps\ns 0x2023\nps\ns 0x2027\nps\nq\n')

[15]============================Tool Output (Exploiter)=============================
[2K[?1000;1006;1015l[33m[0x00002027]> [0m[0mq[0m
# 

[16]===============================Agent (Exploiter)================================
It seems `r2` is not printing the strings directly. I will try to use `x /s` in `gdb` to get the strings.


[16]=============================Tool Call (Exploiter)==============================
sandbox_run(session='behindthescenes_session', input='gdb -q behindthescenes\nx /s 0x201b\nx /s 0x201f\nx /s 0x2023\nx /s 0x2027\nq\n', timeout=120)

[16]============================Tool Output (Exploiter)=============================
/bin/sh: 18: q: not found
# 

[17]===============================Agent (Exploiter)================================
I made a mistake by not exiting `gdb` properly. I should use `quit` instead of `q`. Also, `gdb` might not be able to find the strings directly if they are not null-terminated or if they are part of a larger data section.

Let's try to use `x /3cb` to examine 3 characters as bytes at each address in `gdb`. This will show the ASCII values.


[17]=============================Tool Call (Exploiter)==============================
sandbox_run(input='gdb -q behindthescenes\nx /3cb 0x201b\nx /3cb 0x201f\nx /3cb 0x2023\nx /3cb 0x2027\nquit\n', session='behindthescenes_session', timeout=120)

[17]============================Tool Output (Exploiter)=============================
/bin/sh: 24: quit: not found
# 

[18]===============================Agent (Exploiter)================================
I am still having issues with `gdb` commands. I will try to use `x/s` and `x/3c` in `r2` to get the strings.


[18]=============================Tool Call (Exploiter)==============================
sandbox_run(timeout=120, session='behindthescenes_session', input='r2 -A behindthescenes\nps @0x201b\nps @0x201f\nps @0x2023\nps @0x2027\nq\n')

[18]============================Tool Output (Exploiter)=============================
[2K[?1000;1006;1015l[33m[0x00001140]> [0m[0mq[0m
# 

[19]===============================Agent (Exploiter)================================
It seems `ps` is not working as expected. I will try `px` to print hex and ASCII.


[19]=============================Tool Call (Exploiter)==============================
sandbox_run(session='behindthescenes_session', input='r2 -A behindthescenes\npx 3 @0x201b\npx 3 @0x201f\npx 3 @0x2023\npx 3 @0x2027\nq\n', timeout=120)

[19]============================Tool Output (Exploiter)=============================
[2K[?1000;1006;1015l[33m[0x00001140]> [0m[0mq[0m
# 

[20]===============================Agent (Exploiter)================================
The `px` command in `r2` also doesn't seem to be giving the string directly. I will try to use `cat` on `/proc/self/maps` to find the base address of the binary and then calculate the absolute addresses of the strings. Then I can use `xxd` or `hexdump` to extract the strings.

First, let's find the base address of the binary.


[20]=============================Tool Call (Exploiter)==============================
sandbox_run(session='behindthescenes_session', input='cat /proc/self/maps | grep behindthescenes\n', timeout=120)

[20]============================Tool Output (Exploiter)=============================
# 

[21]===============================Agent (Exploiter)================================
I cannot use `/proc/self/maps` directly as I am not running the `behindthescenes` program. I need to run it and then check its maps. However, I can't interact with it in that way.

Let's go back to `r2` and try to print the string using `s` and then `pds` (print disassembly string). This should print the string at the current seek.


[21]=============================Tool Call (Exploiter)==============================
sandbox_run(input='r2 -A behindthescenes\ns 0x201b\npds\ns 0x201f\npds\ns 0x2023\npds\ns 0x2027\npds\nq\n', timeout=120, session='behindthescenes_session')

[21]============================Tool Output (Exploiter)=============================
[2K[?1000;1006;1015l[33m[0x00002027]> [0m[0mq[0m
# 

[22]===============================Agent (Exploiter)================================
It seems `pds` is also not working as expected. I will try to use `iS` to list sections and then `s <section_name>` to seek to the data section and then `px` to print the hex dump.

First, let's list the sections.


[22]=============================Tool Call (Exploiter)==============================
sandbox_run(input='r2 -A behindthescenes\niS\nq\n', session='behindthescenes_session', timeout=120)

[22]============================Tool Output (Exploiter)=============================
[2K[?1000;1006;1015l[33m[0x00001140]> [0m[0mq[0m
# 

[23]===============================Agent (Exploiter)================================
I will try to use `rabin2 -s behindthescenes` to list the symbols and then `rabin2 -z behindthescenes` to list the strings. This might give me the strings directly.


[23]=============================Tool Call (Exploiter)==============================
sandbox_run(input='rabin2 -z behindthescenes\n', session='behindthescenes_session', timeout=120)

[23]============================Tool Output (Exploiter)=============================
[Strings]
nth paddr      vaddr      len size section type  string
―――――――――――――――――――――――――――――――――――――――――――――――――――――――
0   0x00002004 0x00002004 22  23   .rodata ascii ./challenge <password>
1   0x0000202b 0x0000202b 10  11   .rodata ascii > HTB{%s}\n
# 

[24]===============================Agent (Exploiter)================================
This is helpful! It shows two strings: `./challenge <password>` and `> HTB{%s}\n`. The flag format is `HTB{%s}`. This means the program prints the flag by substituting a string into `HTB{%s}`.

The `objdump` output showed `strncmp` with lengths of 3. The addresses were `0x201b`, `0x201f`, `0x2023`, and `0x2027`. These addresses are within the `.rodata` section.

Let's use `xxd` to dump the `.rodata` section and look for the strings. I need to find the start and end address of the `.rodata` section.
From `iS` in `r2` (which I ran previously but didn't show the output), I can get the section information. I will run `iS` again and capture the output.


[24]=============================Tool Call (Exploiter)==============================
sandbox_run(timeout=120, input='r2 -A behindthescenes\niS\nq\n', session='behindthescenes_session')

[24]============================Tool Output (Exploiter)=============================
[2K[?1000;1006;1015l[33m[0x00001140]> [0m[0mq[0m
# 

[25]===============================Agent (Exploiter)================================
I will try to use `readelf -S behindthescenes` to get the section headers. This is a more reliable way to get section information.


[25]=============================Tool Call (Exploiter)==============================
sandbox_run(session='behindthescenes_session', timeout=120, input='readelf -S behindthescenes\n')

[25]============================Tool Output (Exploiter)=============================
There are 31 section headers, starting at offset 0x3ae8:

Section Headers:
  [Nr] Name              Type             Address           Offset
       Size              EntSize          Flags  Link  Info  Align
  [ 0]                   NULL             0000000000000000  00000000
       0000000000000000  0000000000000000           0     0     0
  [ 1] .interp           PROGBITS         0000000000000318  00000318
       000000000000001c  0000000000000000   A       0     0     1
  [ 2] .note.gnu.pr[...] NOTE             0000000000000338  00000338
       0000000000000020  0000000000000000   A       0     0     8
  [ 3] .note.gnu.bu[...] NOTE             0000000000000358  00000358
       0000000000000024  0000000000000000   A       0     0     4
  [ 4] .note.ABI-tag     NOTE             000000000000037c  0000037c
       0000000000000020  0000000000000000   A       0     0     4
  [ 5] .gnu.hash         GNU_HASH         00000000000003a0  000003a0
       0000000000000024  0000000000000000   A       6     0     8
  [ 6] .dynsym           DYNSYM           00000000000003c8  000003c8
       0000000000000150  0000000000000018   A       7     1     8
  [ 7] .dynstr           STRTAB           0000000000000518  00000518
       00000000000000d0  0000000000000000   A       0     0     1
  [ 8] .gnu.version      VERSYM           00000000000005e8  000005e8
       000000000000001c  0000000000000002   A       6     0     2
  [ 9] .gnu.version_r    VERNEED          0000000000000608  00000608
       0000000000000030  0000000000000000   A       7     1     8
  [10] .rela.dyn         RELA             0000000000000638  00000638
       00000000000000c0  0000000000000018   A       6     0     8
  [11] .rela.plt         RELA             00000000000006f8  000006f8
       00000000000000c0  0000000000000018  AI       6    24     8
  [12] .init             PROGBITS         0000000000001000  00001000
       000000000000001b  0000000000000000  AX       0     0     4
  [13] .plt              PROGBITS         0000000000001020  00001020
       0000000000000090  0000000000000010  AX       0     0     16
  [14] .plt.got          PROGBITS         00000000000010b0  000010b0
       0000000000000010  0000000000000010  AX       0     0     16
  [15] .plt.sec          PROGBITS         00000000000010c0  000010c0
       0000000000000080  0000000000000010  AX       0     0     16
  [16] .text             PROGBITS         0000000000001140  00001140
       0000000000000385  0000000000000000  AX       0     0     16
  [17] .fini             PROGBITS         00000000000014c8  000014c8
       000000000000000d  0000000000000000  AX       0     0     4
  [18] .rodata           PROGBITS         0000000000002000  00002000
       0000000000000036  0000000000000000   A       0     0     4
  [19] .eh_frame_hdr     PROGBITS         0000000000002038  00002038
       000000000000004c  0000000000000000   A       0     0     4
  [20] .eh_frame         PROGBITS         0000000000002088  00002088
       0000000000000128  0000000000000000   A       0     0     8
  [21] .init_array       INIT_ARRAY       0000000000003d80  00002d80
       0000000000000008  0000000000000008  WA       0     0     8
  [22] .fini_array       FINI_ARRAY       0000000000003d88  00002d88
       0000000000000008  0000000000000008  WA       0     0     8
  [23] .dynamic          DYNAMIC          0000000000003d90  00002d90
       00000000000001f0  0000000000000010  WA       7     0     8
  [24] .got              PROGBITS         0000000000003f80  00002f80
       0000000000000080  0000000000000008  WA       0     0     8
  [25] .data             PROGBITS         0000000000004000  00003000
       0000000000000010  0000000000000000  WA       0     0     8
  [26] .bss              NOBITS           0000000000004010  00003010
       0000000000000008  0000000000000000  WA       0     0     1
  [27] .comment          PROGBITS         0000000000000000  00003010
       000000000000002a  0000000000000001  MS       0     0     1
  [28] .symtab           SYMTAB           0000000000000000  00003040
       00000000000006d8  0000000000000018          29    46     8
  [29] .strtab           STRTAB           0000000000000000  00003718
       00000000000002b0  0000000000000000           0     0     1
  [30] .shstrtab         STRTAB           0000000000000000  000039c8
       000000000000011a  0000000000000000           0     0     1
Key to Flags:
  W (write), A (alloc), X (execute), M (merge), S (strings), I (info),
  L (link order), O (extra OS processing required), G (group), T (TLS),
  C (compressed), x (unknown), o (OS specific), E (exclude),
  D (mbind), l (large), p (processor specific)
# 

