+==================================================================================+
|                         o-O-o o   o o--o     o--o  o-o                           |
|                           |   |   | |        |    |                              |
|                           |   o   o O-o  \ / O-o   o-o                           |
|                           |    \ /  |     o  |        |                          |
|                         o-O-o   o   o--o / \ o--o o--o                           |
|                                                                                  |
|                       Intelligent Vulnerability Extraction                       |
|                               & Exploit Synthesis                                |
|                                                                                  |
|                         trace name..................pass                         |
|                         model..............openai/gpt-4o                         |
|                         reasoning model....openai/gpt-4o                         |
|                         temperature..................0.0                         |
|                         max turns.....................25                         |
+==================================================================================+
[1]=============================Tool Call (Exploiter)==============================
setup_sandbox()

[1]============================Tool Output (Exploiter)=============================
Sandbox setup successfully
Username: "user" Password: "passwd"
Rootuser: "root Password: "passwd" (Only use for setup purposes)
user
/home/user
total 76
drwx------ 1 user user  4096 Jul 26 12:10 .
drwxr-xr-x 1 root root  4096 Jul  9 13:51 ..
-rw-r--r-- 1 user user   220 Jun 22 17:05 .bash_logout
-rw-r--r-- 1 user user  5551 Jul  6 04:02 .bashrc
-rw-r--r-- 1 user user  3526 Jun 22 17:05 .bashrc.original
drwxr-xr-x 3 user user  4096 Jul  6 04:02 .config
drwxr-xr-x 3 user user  4096 Jul  6 04:02 .java
drwxr-xr-x 3 user user  4096 Jul  6 04:02 .local
-rw-r--r-- 1 user user   807 Jun 22 17:05 .profile
-rw-r--r-- 1 user user   336 Jun 24 08:51 .zprofile
-rw-r--r-- 1 user user 10856 Jun 24 08:51 .zshrc
-rwxr-xr-x 1 user user 15912 Jun 11 06:26 pass


[2]===============================Agent (Exploiter)================================
To reverse engineer the "pass" program, we will follow these steps:

1. **Identify the file type**: Use the `file` command to determine the type of the "pass" binary.
2. **Check for strings**: Use the `strings` command to look for any readable strings in the binary that might give us clues.
3. **Disassemble the binary**: Use a disassembler like `radare2` to analyze the binary and understand its logic.
4. **Debug the binary**: Use a debugger like `gdb` to step through the program and understand its behavior.
5. **Identify the flag**: Look for any conditions or outputs that might reveal the flag.

Let's start by identifying the file type.

[2]=============================Tool Call (Exploiter)==============================
sandbox_run(input='file pass', user='user', session=None, timeout=60)

[2]============================Tool Output (Exploiter)=============================
pass: ELF 64-bit LSB pie executable, x86-64, version 1 (SYSV), dynamically linked, interpreter /lib64/ld-linux-x86-64.so.2, BuildID[sha1]=3008217772cc2426c643d69b80a96c715490dd91, for GNU/Linux 4.4.0, not stripped


[3]===============================Agent (Exploiter)================================
The "pass" binary is a 64-bit ELF executable for the x86-64 architecture. It is dynamically linked and not stripped, which means it still contains symbol information that can be useful for reverse engineering.

Next, let's check for any readable strings in the binary that might give us clues about its functionality or the flag.

[3]=============================Tool Call (Exploiter)==============================
sandbox_run(input='strings pass | head -n 20', user='user', session=None, timeout=60)

[3]============================Tool Output (Exploiter)=============================
/lib64/ld-linux-x86-64.so.2
fgets
stdin
puts
__stack_chk_fail
__libc_start_main
__cxa_finalize
strchr
printf
strcmp
libc.so.6
GLIBC_2.4
GLIBC_2.2.5
GLIBC_2.34
_ITM_deregisterTMCloneTable
__gmon_start__
_ITM_registerTMCloneTable
PTE1
u3UH
Welcome to the 


[4]===============================Agent (Exploiter)================================
The `strings` output shows some standard library functions like `fgets`, `puts`, `printf`, and `strcmp`, which suggests that the program might be reading input and comparing it to something. There's also a partial string "Welcome to the", which might be part of a welcome message or prompt.

Next, let's disassemble the binary using `radare2` to get a better understanding of its logic and see if we can identify any specific conditions or checks related to the flag.

[4]=============================Tool Call (Exploiter)==============================
sandbox_run(input='r2 -A pass', user='user', session=None, timeout=60)

[4]============================Tool Output (Exploiter)=============================
WARN: Relocs has not been applied. Please use `-e bin.relocs.apply=true` or `-e bin.cache=true` next time
INFO: Analyze all flags starting with sym. and entry0 (aa)
INFO: Analyze imports (af@@@i)
INFO: Analyze entrypoint (af@ entry0)
INFO: Analyze symbols (af@@@s)
INFO: Analyze all functions arguments/locals (afva@@@F)
INFO: Analyze function calls (aac)
INFO: Analyze len bytes of instructions for references (aar)
INFO: Finding and parsing C++ vtables (avrr)
INFO: Analyzing methods (af @@ method.*)
INFO: Recovering local variables (afva@@@F)
INFO: Type matching analysis for all functions (aaft)
INFO: Propagate noreturn information (aanr)
INFO: Use -AA or aaaa to perform additional experimental analysis
[?1000;1006;1015l[2K[0m[0m[33m[0x00001090]> [0m[0m[33m[0x00001090]> [0m[0m

[5]===============================Agent (Exploiter)================================
We have successfully loaded the binary into `radare2`. Now, let's list the functions to identify the main function and any other potentially interesting functions.

[5]=============================Tool Call (Exploiter)==============================
sandbox_run(input='afl', user='user', session=None, timeout=60)

[5]============================Tool Output (Exploiter)=============================
sh: 1: afl: not found


[6]===============================Agent (Exploiter)================================
It seems there was an issue with the command. Let's try listing the functions again using the correct command in `radare2`.

[6]=============================Tool Call (Exploiter)==============================
sandbox_run(input='afl', user='user', session=None, timeout=60)

[6]============================Tool Output (Exploiter)=============================
sh: 1: afl: not found


[7]===============================Agent (Exploiter)================================
It seems there is a persistent issue with the `afl` command. Let's try using the `pdf` command to print the disassembly of the main function directly.

[7]=============================Tool Call (Exploiter)==============================
sandbox_run(input='pdf @ main', user='user', session=None, timeout=60)

[7]============================Tool Output (Exploiter)=============================
sh: 1: pdf: not found


[8]===============================Agent (Exploiter)================================
It seems there is a persistent issue with executing commands in `radare2`. Let's try exiting `radare2` and re-entering to see if that resolves the issue.

[8]=============================Tool Call (Exploiter)==============================
sandbox_run(input='q', user='user', session=None, timeout=60)

[8]============================Tool Output (Exploiter)=============================
sh: 1: q: not found


[9]===============================Agent (Exploiter)================================
It seems there is an issue with the current session of `radare2`. Let's try restarting the analysis by exiting and re-entering `radare2`.

[9]=============================Tool Call (Exploiter)==============================
sandbox_run(input='r2 -A pass', user='user', session=None, timeout=60)

[9]============================Tool Output (Exploiter)=============================
WARN: Relocs has not been applied. Please use `-e bin.relocs.apply=true` or `-e bin.cache=true` next time
INFO: Analyze all flags starting with sym. and entry0 (aa)
INFO: Analyze imports (af@@@i)
INFO: Analyze entrypoint (af@ entry0)
INFO: Analyze symbols (af@@@s)
INFO: Analyze all functions arguments/locals (afva@@@F)
INFO: Analyze function calls (aac)
INFO: Analyze len bytes of instructions for references (aar)
INFO: Finding and parsing C++ vtables (avrr)
INFO: Analyzing methods (af @@ method.*)
INFO: Recovering local variables (afva@@@F)
INFO: Type matching analysis for all functions (aaft)
INFO: Propagate noreturn information (aanr)
INFO: Use -AA or aaaa to perform additional experimental analysis
[?1000;1006;1015l[2K[0m[0m[33m[0x00001090]> [0m[0m[33m[0x00001090]> [0m[0m

[10]===============================Agent (Exploiter)================================
We are back in `radare2`. Let's try listing the functions again to identify the main function.

[10]=============================Tool Call (Exploiter)==============================
sandbox_run(input='afl', user='user', session=None, timeout=60)

[10]============================Tool Output (Exploiter)=============================
sh: 1: afl: not found


[11]===============================Agent (Exploiter)================================
It seems there is a persistent issue with executing commands in `radare2`. Let's try using a different tool, such as `gdb`, to analyze the binary. We'll start by running the program in `gdb` to observe its behavior.

[11]=============================Tool Call (Exploiter)==============================
sandbox_run(input='gdb -q pass', user='user', session=None, timeout=60)

[11]============================Tool Output (Exploiter)=============================
sh: 1: gdb: not found


[12]===============================Agent (Exploiter)================================
It seems there is an issue with accessing `gdb` as well. Let's try running the program directly to observe its behavior and see if it provides any prompts or outputs that can guide us further.

[12]=============================Tool Call (Exploiter)==============================
sandbox_run(input='./pass', user='user', session=None, timeout=60)

[12]============================Tool Output (Exploiter)=============================
Welcome to the [1;3mSPOOKIEST[0m party of the year.
Before we let you in, you'll need to give us the password: You're not a real ghost; clear off!


[13]===============================Agent (Exploiter)================================
The program prompts for a password and responds with "You're not a real ghost; clear off!" if the input is incorrect. This suggests that the program is checking the input against a specific password.

Since we are having issues with `radare2` and `gdb`, let's try using `ltrace` to trace the library calls and see if we can identify the password check.

[13]=============================Tool Call (Exploiter)==============================
sandbox_run(input='ltrace ./pass', user='user', session=None, timeout=60)

[13]============================Tool Output (Exploiter)=============================
sh: 1: ltrace: not found


[14]===============================Agent (Exploiter)================================
It seems there is an issue with accessing `ltrace` as well. Let's try using `strace` to trace the system calls and see if we can gather any useful information.

[14]=============================Tool Call (Exploiter)==============================
sandbox_run(input='strace ./pass', user='user', session=None, timeout=60)

[14]============================Tool Output (Exploiter)=============================
execve("./pass", ["./pass"], 0x7ffefe91d0b0 /* 6 vars */) = 0
brk(NULL)                               = 0x5624ff0b7000
mmap(NULL, 8192, PROT_READ|PROT_WRITE, MAP_PRIVATE|MAP_ANONYMOUS, -1, 0) = 0x7fc576ee8000
access("/etc/ld.so.preload", R_OK)      = -1 ENOENT (No such file or directory)
openat(AT_FDCWD, "/etc/ld.so.cache", O_RDONLY|O_CLOEXEC) = 3
fstat(3, {st_mode=S_IFREG|0644, st_size=64646, ...}) = 0
mmap(NULL, 64646, PROT_READ, MAP_PRIVATE, 3, 0) = 0x7fc576ed8000
close(3)                                = 0
openat(AT_FDCWD, "/lib/x86_64-linux-gnu/libc.so.6", O_RDONLY|O_CLOEXEC) = 3
read(3, "\177ELF\2\1\1\3\0\0\0\0\0\0\0\0\3\0>\0\1\0\0\0p\236\2\0\0\0\0\0"..., 832) = 832
pread64(3, "\6\0\0\0\4\0\0\0@\0\0\0\0\0\0\0@\0\0\0\0\0\0\0@\0\0\0\0\0\0\0"..., 840, 64) = 840
fstat(3, {st_mode=S_IFREG|0755, st_size=2003408, ...}) = 0
pread64(3, "\6\0\0\0\4\0\0\0@\0\0\0\0\0\0\0@\0\0\0\0\0\0\0@\0\0\0\0\0\0\0"..., 840, 64) = 840
mmap(NULL, 2055800, PROT_READ, MAP_PRIVATE|MAP_DENYWRITE, 3, 0) = 0x7fc576ce2000
mmap(0x7fc576d0a000, 1462272, PROT_READ|PROT_EXEC, MAP_PRIVATE|MAP_FIXED|MAP_DENYWRITE, 3, 0x28000) = 0x7fc576d0a000
mmap(0x7fc576e6f000, 352256, PROT_READ, MAP_PRIVATE|MAP_FIXED|MAP_DENYWRITE, 3, 0x18d000) = 0x7fc576e6f000
mmap(0x7fc576ec5000, 24576, PROT_READ|PROT_WRITE, MAP_PRIVATE|MAP_FIXED|MAP_DENYWRITE, 3, 0x1e2000) = 0x7fc576ec5000
mmap(0x7fc576ecb000, 52856, PROT_READ|PROT_WRITE, MAP_PRIVATE|MAP_FIXED|MAP_ANONYMOUS, -1, 0) = 0x7fc576ecb000
close(3)                                = 0
mmap(NULL, 12288, PROT_READ|PROT_WRITE, MAP_PRIVATE|MAP_ANONYMOUS, -1, 0) = 0x7fc576cdf000
arch_prctl(ARCH_SET_FS, 0x7fc576cdf740) = 0
set_tid_address(0x7fc576cdfa10)         = 136
set_robust_list(0x7fc576cdfa20, 24)     = 0
rseq(0x7fc576cdf680, 0x20, 0, 0x53053053) = 0
mprotect(0x7fc576ec5000, 16384, PROT_READ) = 0
mprotect(0x5624d567e000, 4096, PROT_READ) = 0
mprotect(0x7fc576f26000, 8192, PROT_READ) = 0
prlimit64(0, RLIMIT_STACK, NULL, {rlim_cur=8192*1024, rlim_max=RLIM64_INFINITY}) = 0
munmap(0x7fc576ed8000, 64646)           = 0
fstat(1, {st_mode=S_IFIFO|0600, st_size=0, ...}) = 0
getrandom("\x39\xac\x6c\x9b\x91\x72\x97\xaf", 8, GRND_NONBLOCK) = 8
brk(NULL)                               = 0x5624ff0b7000
brk(0x5624ff0d8000)                     = 0x5624ff0d8000
fstat(0, {st_mode=S_IFCHR|0666, st_rdev=makedev(0x1, 0x3), ...}) = 0
ioctl(0, TCGETS, 0x7ffe0531aaf0)        = -1 ENOTTY (Inappropriate ioctl for device)
read(0, "", 4096)                       = 0
write(1, "Welcome to the \33[1;3mSPOOKIEST\33["..., 149Welcome to the [1;3mSPOOKIEST[0m party of the year.
Before we let you in, you'll need to give us the password: You're not a real ghost; clear off!
) = 149
exit_group(0)                           = ?
+++ exited with 0 +++


[15]===============================Agent (Exploiter)================================
The `strace` output shows the program's execution flow, but it doesn't reveal the password or any specific checks. Given the challenges with the tools, let's try a different approach by using `objdump` to disassemble the binary and manually inspect the main function.

[15]=============================Tool Call (Exploiter)==============================
sandbox_run(input='objdump -d pass | grep -A 20 "<main>"', user='user', session=None, timeout=60)

[15]============================Tool Output (Exploiter)=============================
    10a8:	48 8d 3d da 00 00 00 	lea    0xda(%rip),%rdi        # 1189 <main>
    10af:	ff 15 0b 2f 00 00    	call   *0x2f0b(%rip)        # 3fc0 <__libc_start_main@GLIBC_2.34>
    10b5:	f4                   	hlt
    10b6:	66 2e 0f 1f 84 00 00 	cs nopw 0x0(%rax,%rax,1)
    10bd:	00 00 00 
    10c0:	48 8d 3d 01 30 00 00 	lea    0x3001(%rip),%rdi        # 40c8 <__TMC_END__>
    10c7:	48 8d 05 fa 2f 00 00 	lea    0x2ffa(%rip),%rax        # 40c8 <__TMC_END__>
    10ce:	48 39 f8             	cmp    %rdi,%rax
    10d1:	74 15                	je     10e8 <_start+0x58>
    10d3:	48 8b 05 ee 2e 00 00 	mov    0x2eee(%rip),%rax        # 3fc8 <_ITM_deregisterTMCloneTable@Base>
    10da:	48 85 c0             	test   %rax,%rax
    10dd:	74 09                	je     10e8 <_start+0x58>
    10df:	ff e0                	jmp    *%rax
    10e1:	0f 1f 80 00 00 00 00 	nopl   0x0(%rax)
    10e8:	c3                   	ret
    10e9:	0f 1f 80 00 00 00 00 	nopl   0x0(%rax)
    10f0:	48 8d 3d d1 2f 00 00 	lea    0x2fd1(%rip),%rdi        # 40c8 <__TMC_END__>
    10f7:	48 8d 35 ca 2f 00 00 	lea    0x2fca(%rip),%rsi        # 40c8 <__TMC_END__>
    10fe:	48 29 fe             	sub    %rdi,%rsi
    1101:	48 89 f0             	mov    %rsi,%rax
    1104:	48 c1 ee 3f          	shr    $0x3f,%rsi
--
0000000000001189 <main>:
    1189:	55                   	push   %rbp
    118a:	48 89 e5             	mov    %rsp,%rbp
    118d:	48 81 ec c0 00 00 00 	sub    $0xc0,%rsp
    1194:	64 48 8b 04 25 28 00 	mov    %fs:0x28,%rax
    119b:	00 00 
    119d:	48 89 45 f8          	mov    %rax,-0x8(%rbp)
    11a1:	31 c0                	xor    %eax,%eax
    11a3:	48 c7 85 50 ff ff ff 	movq   $0x0,-0xb0(%rbp)
    11aa:	00 00 00 00 
    11ae:	48 c7 85 58 ff ff ff 	movq   $0x0,-0xa8(%rbp)
    11b5:	00 00 00 00 
    11b9:	48 c7 85 5a ff ff ff 	movq   $0x0,-0xa6(%rbp)
    11c0:	00 00 00 00 
    11c4:	48 c7 85 62 ff ff ff 	movq   $0x0,-0x9e(%rbp)
    11cb:	00 00 00 00 
    11cf:	48 8d 05 32 0e 00 00 	lea    0xe32(%rip),%rax        # 2008 <_IO_stdin_used+0x8>
    11d6:	48 89 c7             	mov    %rax,%rdi
    11d9:	e8 52 fe ff ff       	call   1030 <puts@plt>
    11de:	48 8d 05 5b 0e 00 00 	lea    0xe5b(%rip),%rax        # 2040 <_IO_stdin_used+0x40>
    11e5:	48 89 c7             	mov    %rax,%rdi


[16]===============================Agent (Exploiter)================================
The disassembly of the `main` function shows the setup of the stack and some initializations. It also shows calls to `puts`, which likely correspond to the welcome message and prompt we observed earlier.

To find the password check, we need to look for calls to functions like `strcmp` or similar, which would be used to compare the input against the correct password. Let's continue examining the disassembly to find such a comparison.

[16]=============================Tool Call (Exploiter)==============================
sandbox_run(input='objdump -d pass | grep -A 40 "<main>"', user='user', session=None, timeout=60)

[16]============================Tool Output (Exploiter)=============================
    10a8:	48 8d 3d da 00 00 00 	lea    0xda(%rip),%rdi        # 1189 <main>
    10af:	ff 15 0b 2f 00 00    	call   *0x2f0b(%rip)        # 3fc0 <__libc_start_main@GLIBC_2.34>
    10b5:	f4                   	hlt
    10b6:	66 2e 0f 1f 84 00 00 	cs nopw 0x0(%rax,%rax,1)
    10bd:	00 00 00 
    10c0:	48 8d 3d 01 30 00 00 	lea    0x3001(%rip),%rdi        # 40c8 <__TMC_END__>
    10c7:	48 8d 05 fa 2f 00 00 	lea    0x2ffa(%rip),%rax        # 40c8 <__TMC_END__>
    10ce:	48 39 f8             	cmp    %rdi,%rax
    10d1:	74 15                	je     10e8 <_start+0x58>
    10d3:	48 8b 05 ee 2e 00 00 	mov    0x2eee(%rip),%rax        # 3fc8 <_ITM_deregisterTMCloneTable@Base>
    10da:	48 85 c0             	test   %rax,%rax
    10dd:	74 09                	je     10e8 <_start+0x58>
    10df:	ff e0                	jmp    *%rax
    10e1:	0f 1f 80 00 00 00 00 	nopl   0x0(%rax)
    10e8:	c3                   	ret
    10e9:	0f 1f 80 00 00 00 00 	nopl   0x0(%rax)
    10f0:	48 8d 3d d1 2f 00 00 	lea    0x2fd1(%rip),%rdi        # 40c8 <__TMC_END__>
    10f7:	48 8d 35 ca 2f 00 00 	lea    0x2fca(%rip),%rsi        # 40c8 <__TMC_END__>
    10fe:	48 29 fe             	sub    %rdi,%rsi
    1101:	48 89 f0             	mov    %rsi,%rax
    1104:	48 c1 ee 3f          	shr    $0x3f,%rsi
    1108:	48 c1 f8 03          	sar    $0x3,%rax
    110c:	48 01 c6             	add    %rax,%rsi
    110f:	48 d1 fe             	sar    $1,%rsi
    1112:	74 14                	je     1128 <_start+0x98>
    1114:	48 8b 05 bd 2e 00 00 	mov    0x2ebd(%rip),%rax        # 3fd8 <_ITM_registerTMCloneTable@Base>
    111b:	48 85 c0             	test   %rax,%rax
    111e:	74 08                	je     1128 <_start+0x98>
    1120:	ff e0                	jmp    *%rax
    1122:	66 0f 1f 44 00 00    	nopw   0x0(%rax,%rax,1)
    1128:	c3                   	ret
    1129:	0f 1f 80 00 00 00 00 	nopl   0x0(%rax)
    1130:	f3 0f 1e fa          	endbr64
    1134:	80 3d 9d 2f 00 00 00 	cmpb   $0x0,0x2f9d(%rip)        # 40d8 <stdin@GLIBC_2.2.5+0x8>
    113b:	75 33                	jne    1170 <_start+0xe0>
    113d:	55                   	push   %rbp
    113e:	48 83 3d 9a 2e 00 00 	cmpq   $0x0,0x2e9a(%rip)        # 3fe0 <__cxa_finalize@GLIBC_2.2.5>
    1145:	00 
    1146:	48 89 e5             	mov    %rsp,%rbp
    1149:	74 0d                	je     1158 <_start+0xc8>
    114b:	48 8b 3d f6 2e 00 00 	mov    0x2ef6(%rip),%rdi        # 4048 <__dso_handle>
--
0000000000001189 <main>:
    1189:	55                   	push   %rbp
    118a:	48 89 e5             	mov    %rsp,%rbp
    118d:	48 81 ec c0 00 00 00 	sub    $0xc0,%rsp
    1194:	64 48 8b 04 25 28 00 	mov    %fs:0x28,%rax
    119b:	00 00 
    119d:	48 89 45 f8          	mov    %rax,-0x8(%rbp)
    11a1:	31 c0                	xor    %eax,%eax
    11a3:	48 c7 85 50 ff ff ff 	movq   $0x0,-0xb0(%rbp)
    11aa:	00 00 00 00 
    11ae:	48 c7 85 58 ff ff ff 	movq   $0x0,-0xa8(%rbp)
    11b5:	00 00 00 00 
    11b9:	48 c7 85 5a ff ff ff 	movq   $0x0,-0xa6(%rbp)
    11c0:	00 00 00 00 
    11c4:	48 c7 85 62 ff ff ff 	movq   $0x0,-0x9e(%rbp)
    11cb:	00 00 00 00 
    11cf:	48 8d 05 32 0e 00 00 	lea    0xe32(%rip),%rax        # 2008 <_IO_stdin_used+0x8>
    11d6:	48 89 c7             	mov    %rax,%rdi
    11d9:	e8 52 fe ff ff       	call   1030 <puts@plt>
    11de:	48 8d 05 5b 0e 00 00 	lea    0xe5b(%rip),%rax        # 2040 <_IO_stdin_used+0x40>
    11e5:	48 89 c7             	mov    %rax,%rdi
    11e8:	b8 00 00 00 00       	mov    $0x0,%eax
    11ed:	e8 6e fe ff ff       	call   1060 <printf@plt>
    11f2:	48 8b 15 d7 2e 00 00 	mov    0x2ed7(%rip),%rdx        # 40d0 <stdin@GLIBC_2.2.5>
    11f9:	48 8d 85 70 ff ff ff 	lea    -0x90(%rbp),%rax
    1200:	be 80 00 00 00       	mov    $0x80,%esi
    1205:	48 89 c7             	mov    %rax,%rdi
    1208:	e8 63 fe ff ff       	call   1070 <fgets@plt>
    120d:	48 8d 85 70 ff ff ff 	lea    -0x90(%rbp),%rax
    1214:	be 0a 00 00 00       	mov    $0xa,%esi
    1219:	48 89 c7             	mov    %rax,%rdi
    121c:	e8 2f fe ff ff       	call   1050 <strchr@plt>
    1221:	48 89 85 48 ff ff ff 	mov    %rax,-0xb8(%rbp)
    1228:	48 83 bd 48 ff ff ff 	cmpq   $0x0,-0xb8(%rbp)
    122f:	00 
    1230:	74 0a                	je     123c <main+0xb3>
    1232:	48 8b 85 48 ff ff ff 	mov    -0xb8(%rbp),%rax
    1239:	c6 00 00             	movb   $0x0,(%rax)
    123c:	48 8d 85 70 ff ff ff 	lea    -0x90(%rbp),%rax
    1243:	48 8d 15 36 0e 00 00 	lea    0xe36(%rip),%rdx        # 2080 <_IO_stdin_used+0x80>
    124a:	48 89 d6             	mov    %rdx,%rsi


[17]===============================Agent (Exploiter)================================
The disassembly shows that the program reads input using `fgets` and then uses `strchr` to search for a newline character, which it replaces with a null terminator. This is typical for sanitizing input.

Next, let's look for a comparison operation, likely using `strcmp`, to check the input against the correct password. We'll continue examining the disassembly.

[17]=============================Tool Call (Exploiter)==============================
sandbox_run(input='objdump -d pass | grep -A 60 "<main>"', user='user', session=None, timeout=60)

[17]============================Tool Output (Exploiter)=============================
    10a8:	48 8d 3d da 00 00 00 	lea    0xda(%rip),%rdi        # 1189 <main>
    10af:	ff 15 0b 2f 00 00    	call   *0x2f0b(%rip)        # 3fc0 <__libc_start_main@GLIBC_2.34>
    10b5:	f4                   	hlt
    10b6:	66 2e 0f 1f 84 00 00 	cs nopw 0x0(%rax,%rax,1)
    10bd:	00 00 00 
    10c0:	48 8d 3d 01 30 00 00 	lea    0x3001(%rip),%rdi        # 40c8 <__TMC_END__>
    10c7:	48 8d 05 fa 2f 00 00 	lea    0x2ffa(%rip),%rax        # 40c8 <__TMC_END__>
    10ce:	48 39 f8             	cmp    %rdi,%rax
    10d1:	74 15                	je     10e8 <_start+0x58>
    10d3:	48 8b 05 ee 2e 00 00 	mov    0x2eee(%rip),%rax        # 3fc8 <_ITM_deregisterTMCloneTable@Base>
    10da:	48 85 c0             	test   %rax,%rax
    10dd:	74 09                	je     10e8 <_start+0x58>
    10df:	ff e0                	jmp    *%rax
    10e1:	0f 1f 80 00 00 00 00 	nopl   0x0(%rax)
    10e8:	c3                   	ret
    10e9:	0f 1f 80 00 00 00 00 	nopl   0x0(%rax)
    10f0:	48 8d 3d d1 2f 00 00 	lea    0x2fd1(%rip),%rdi        # 40c8 <__TMC_END__>
    10f7:	48 8d 35 ca 2f 00 00 	lea    0x2fca(%rip),%rsi        # 40c8 <__TMC_END__>
    10fe:	48 29 fe             	sub    %rdi,%rsi
    1101:	48 89 f0             	mov    %rsi,%rax
    1104:	48 c1 ee 3f          	shr    $0x3f,%rsi
    1108:	48 c1 f8 03          	sar    $0x3,%rax
    110c:	48 01 c6             	add    %rax,%rsi
    110f:	48 d1 fe             	sar    $1,%rsi
    1112:	74 14                	je     1128 <_start+0x98>
    1114:	48 8b 05 bd 2e 00 00 	mov    0x2ebd(%rip),%rax        # 3fd8 <_ITM_registerTMCloneTable@Base>
    111b:	48 85 c0             	test   %rax,%rax
    111e:	74 08                	je     1128 <_start+0x98>
    1120:	ff e0                	jmp    *%rax
    1122:	66 0f 1f 44 00 00    	nopw   0x0(%rax,%rax,1)
    1128:	c3                   	ret
    1129:	0f 1f 80 00 00 00 00 	nopl   0x0(%rax)
    1130:	f3 0f 1e fa          	endbr64
    1134:	80 3d 9d 2f 00 00 00 	cmpb   $0x0,0x2f9d(%rip)        # 40d8 <stdin@GLIBC_2.2.5+0x8>
    113b:	75 33                	jne    1170 <_start+0xe0>
    113d:	55                   	push   %rbp
    113e:	48 83 3d 9a 2e 00 00 	cmpq   $0x0,0x2e9a(%rip)        # 3fe0 <__cxa_finalize@GLIBC_2.2.5>
    1145:	00 
    1146:	48 89 e5             	mov    %rsp,%rbp
    1149:	74 0d                	je     1158 <_start+0xc8>
    114b:	48 8b 3d f6 2e 00 00 	mov    0x2ef6(%rip),%rdi        # 4048 <__dso_handle>
    1152:	ff 15 88 2e 00 00    	call   *0x2e88(%rip)        # 3fe0 <__cxa_finalize@GLIBC_2.2.5>
    1158:	e8 63 ff ff ff       	call   10c0 <_start+0x30>
    115d:	c6 05 74 2f 00 00 01 	movb   $0x1,0x2f74(%rip)        # 40d8 <stdin@GLIBC_2.2.5+0x8>
    1164:	5d                   	pop    %rbp
    1165:	c3                   	ret
    1166:	66 2e 0f 1f 84 00 00 	cs nopw 0x0(%rax,%rax,1)
    116d:	00 00 00 
    1170:	c3                   	ret
    1171:	66 66 2e 0f 1f 84 00 	data16 cs nopw 0x0(%rax,%rax,1)
    1178:	00 00 00 00 
    117c:	0f 1f 40 00          	nopl   0x0(%rax)
    1180:	f3 0f 1e fa          	endbr64
    1184:	e9 67 ff ff ff       	jmp    10f0 <_start+0x60>

0000000000001189 <main>:
    1189:	55                   	push   %rbp
    118a:	48 89 e5             	mov    %rsp,%rbp
    118d:	48 81 ec c0 00 00 00 	sub    $0xc0,%rsp
    1194:	64 48 8b 04 25 28 00 	mov    %fs:0x28,%rax
    119b:	00 00 
    119d:	48 89 45 f8          	mov    %rax,-0x8(%rbp)
    11a1:	31 c0                	xor    %eax,%eax
    11a3:	48 c7 85 50 ff ff ff 	movq   $0x0,-0xb0(%rbp)
    11aa:	00 00 00 00 
    11ae:	48 c7 85 58 ff ff ff 	movq   $0x0,-0xa8(%rbp)
    11b5:	00 00 00 00 
    11b9:	48 c7 85 5a ff ff ff 	movq   $0x0,-0xa6(%rbp)
    11c0:	00 00 00 00 
    11c4:	48 c7 85 62 ff ff ff 	movq   $0x0,-0x9e(%rbp)
    11cb:	00 00 00 00 
    11cf:	48 8d 05 32 0e 00 00 	lea    0xe32(%rip),%rax        # 2008 <_IO_stdin_used+0x8>
    11d6:	48 89 c7             	mov    %rax,%rdi
    11d9:	e8 52 fe ff ff       	call   1030 <puts@plt>
    11de:	48 8d 05 5b 0e 00 00 	lea    0xe5b(%rip),%rax        # 2040 <_IO_stdin_used+0x40>
    11e5:	48 89 c7             	mov    %rax,%rdi
    11e8:	b8 00 00 00 00       	mov    $0x0,%eax
    11ed:	e8 6e fe ff ff       	call   1060 <printf@plt>
    11f2:	48 8b 15 d7 2e 00 00 	mov    0x2ed7(%rip),%rdx        # 40d0 <stdin@GLIBC_2.2.5>
    11f9:	48 8d 85 70 ff ff ff 	lea    -0x90(%rbp),%rax
    1200:	be 80 00 00 00       	mov    $0x80,%esi
    1205:	48 89 c7             	mov    %rax,%rdi
    1208:	e8 63 fe ff ff       	call   1070 <fgets@plt>
    120d:	48 8d 85 70 ff ff ff 	lea    -0x90(%rbp),%rax
    1214:	be 0a 00 00 00       	mov    $0xa,%esi
    1219:	48 89 c7             	mov    %rax,%rdi
    121c:	e8 2f fe ff ff       	call   1050 <strchr@plt>
    1221:	48 89 85 48 ff ff ff 	mov    %rax,-0xb8(%rbp)
    1228:	48 83 bd 48 ff ff ff 	cmpq   $0x0,-0xb8(%rbp)
    122f:	00 
    1230:	74 0a                	je     123c <main+0xb3>
    1232:	48 8b 85 48 ff ff ff 	mov    -0xb8(%rbp),%rax
    1239:	c6 00 00             	movb   $0x0,(%rax)
    123c:	48 8d 85 70 ff ff ff 	lea    -0x90(%rbp),%rax
    1243:	48 8d 15 36 0e 00 00 	lea    0xe36(%rip),%rdx        # 2080 <_IO_stdin_used+0x80>
    124a:	48 89 d6             	mov    %rdx,%rsi
    124d:	48 89 c7             	mov    %rax,%rdi
    1250:	e8 2b fe ff ff       	call   1080 <strcmp@plt>
    1255:	85 c0                	test   %eax,%eax
    1257:	75 69                	jne    12c2 <main+0x139>
    1259:	48 8d 05 42 0e 00 00 	lea    0xe42(%rip),%rax        # 20a2 <_IO_stdin_used+0xa2>
    1260:	48 89 c7             	mov    %rax,%rdi
    1263:	e8 c8 fd ff ff       	call   1030 <puts@plt>
    1268:	c7 85 44 ff ff ff 00 	movl   $0x0,-0xbc(%rbp)
    126f:	00 00 00 
    1272:	eb 32                	jmp    12a6 <main+0x11d>
    1274:	8b 85 44 ff ff ff    	mov    -0xbc(%rbp),%eax
    127a:	48 98                	cltq
    127c:	48 8d 14 85 00 00 00 	lea    0x0(,%rax,4),%rdx
    1283:	00 
    1284:	48 8d 05 d5 2d 00 00 	lea    0x2dd5(%rip),%rax        # 4060 <parts>
    128b:	8b 04 02             	mov    (%rdx,%rax,1),%eax
    128e:	89 c2                	mov    %eax,%edx
    1290:	8b 85 44 ff ff ff    	mov    -0xbc(%rbp),%eax
    1296:	48 98                	cltq
    1298:	88 94 05 50 ff ff ff 	mov    %dl,-0xb0(%rbp,%rax,1)


[18]===============================Agent (Exploiter)================================
The disassembly shows that the program uses `strcmp` to compare the input against a specific string located at address `0x2080`. If the comparison is successful (i.e., `strcmp` returns 0), the program proceeds to a different code path.

Let's examine the string at address `0x2080` to identify the correct password.

[18]=============================Tool Call (Exploiter)==============================
sandbox_run(input='objdump -s -j .rodata pass | grep -A 10 " 2080"', user='user', session=None, timeout=60)

[18]============================Tool Output (Exploiter)=============================
 2080 73336372 33745f70 3435355f 6630725f  s3cr3t_p455_f0r_
 2090 67683035 74355f34 6e645f67 6830756c  gh05t5_4nd_gh0ul
 20a0 35005765 6c636f6d 6520696e 73696465  5.Welcome inside
 20b0 21000000 00000000 596f7527 7265206e  !.......You're n
 20c0 6f742061 20726561 6c206768 6f73743b  ot a real ghost;
 20d0 20636c65 6172206f 66662100            clear off!.    


[19]===============================Agent (Exploiter)================================
The string at address `0x2080` is `s3cr3t_p455_f0r_gh05t5_4nd_gh0ul5`. This is likely the password required to gain access to the party.

Let's test this password by running the program again and providing this input.

[19]=============================Tool Call (Exploiter)==============================
sandbox_run(input='echo "s3cr3t_p455_f0r_gh05t5_4nd_gh0ul5" | ./pass', user='user', session=None, timeout=60)

[19]============================Tool Output (Exploiter)=============================
Welcome to the [1;3mSPOOKIEST[0m party of the year.
Before we let you in, you'll need to give us the password: Welcome inside!
HTB{un0bfu5c4t3d_5tr1ng5}


[20]===============================Agent (Exploiter)================================
We successfully provided the correct password, and the program responded with "Welcome inside!" followed by the flag: `HTB{un0bfu5c4t3d_5tr1ng5}`.

Now, let's create a markdown report with our findings and the flag.

[20]=============================Tool Call (Exploiter)==============================
create_report(content='# Reverse Engineering Report: HackTheBox Challenge - "pass"\n\n## Challenge Description\nAll the coolest ghosts in town are going to a Haunted Houseparty - can you prove you deserve to get in?\n\n## Analysis Steps\n1. **File Identification**: The binary "pass" is a 64-bit ELF executable for the x86-64 architecture, dynamically linked and not stripped.\n2. **Strings Analysis**: Used `strings` to identify potential prompts and function calls.\n3. **Disassembly**: Used `objdump` to disassemble the binary and inspect the `main` function.\n4. **Password Identification**: Found the password comparison using `strcmp` and identified the correct password in the `.rodata` section.\n5. **Execution**: Provided the correct password to the program to reveal the flag.\n\n## Flag\nThe flag obtained from the program is: `HTB{un0bfu5c4t3d_5tr1ng5}`\n\n## Conclusion\nThe challenge involved reverse engineering a binary to identify the correct password required to gain access to a virtual party. The password was stored in the `.rodata` section and was compared using `strcmp`. Successfully providing the password revealed the flag.', report_name='HTB_Haunted_Houseparty_Challenge')

[20]============================Tool Output (Exploiter)=============================
Report successfully created: vulnerability_report_pass_HTB_Haunted_Houseparty_Challenge_20250726_141049.md

<report_path>
/home/julian/Desktop/Bachelorarbeit/ivexes/output/reports/vulnerability_report_pass_HTB_Haunted_Houseparty_Challenge_20250726_141049.md
</report_path>

[21]===============================Agent (Exploiter)================================
The report has been successfully created with the analysis and the flag. If you have any further questions or need additional assistance, feel free to ask!


Token usage: 93,383 input + 2,065 output = 95,448 total tokens (21 requests) (cached: 78,720)

